	.section	__TEXT,__text,regular,pure_instructions
	.macosx_version_min 10, 13
	.file	1 "/usr/include/_types" "_uint16_t.h"
	.file	2 "bdf_kern.c"
	.file	3 "/usr/include/_types" "_uint8_t.h"
	.globl	_bdf_write_kerning_file ## -- Begin function bdf_write_kerning_file
	.p2align	4, 0x90
_bdf_write_kerning_file:                ## @bdf_write_kerning_file
Lfunc_begin0:
	.loc	2 77 0                  ## bdf_kern.c:77:0
	.cfi_startproc
## BB#0:
	pushq	%rbp
Lcfi0:
	.cfi_def_cfa_offset 16
Lcfi1:
	.cfi_offset %rbp, -16
	movq	%rsp, %rbp
Lcfi2:
	.cfi_def_cfa_register %rbp
	subq	$96, %rsp
	leaq	L_.str(%rip), %rax
	movq	%rdi, -8(%rbp)
	movq	%rsi, -16(%rbp)
Ltmp0:
	.loc	2 79 14 prologue_end    ## bdf_kern.c:79:14
	movq	-8(%rbp), %rdi
	.loc	2 79 8 is_stmt 0        ## bdf_kern.c:79:8
	movq	%rax, %rsi
	callq	_fopen
	leaq	L_.str.1(%rip), %rsi
	movq	_bdf_second_table_cnt@GOTPCREL(%rip), %rdi
	movq	_bdf_first_table_cnt@GOTPCREL(%rip), %rcx
	.loc	2 79 6                  ## bdf_kern.c:79:6
	movq	%rax, -24(%rbp)
	.loc	2 81 11 is_stmt 1       ## bdf_kern.c:81:11
	movq	-24(%rbp), %rax
	.loc	2 81 45 is_stmt 0       ## bdf_kern.c:81:45
	movq	-16(%rbp), %rdx
	.loc	2 81 51                 ## bdf_kern.c:81:51
	movzwl	(%rcx), %r8d
	.loc	2 81 70                 ## bdf_kern.c:81:70
	shll	$2, %r8d
	.loc	2 81 75                 ## bdf_kern.c:81:75
	movzwl	(%rdi), %r9d
	.loc	2 81 95                 ## bdf_kern.c:81:95
	imull	$3, %r9d, %r9d
	.loc	2 81 73                 ## bdf_kern.c:81:73
	addl	%r9d, %r8d
	.loc	2 81 98                 ## bdf_kern.c:81:98
	addl	$4, %r8d
	.loc	2 81 102                ## bdf_kern.c:81:102
	addl	$8, %r8d
	.loc	2 81 3                  ## bdf_kern.c:81:3
	movq	%rax, %rdi
	movl	%r8d, %ecx
	movb	$0, %al
	callq	_fprintf
	leaq	L_.str.2(%rip), %rdx
	movq	_bdf_first_encoding_table@GOTPCREL(%rip), %r8
	movq	_bdf_first_table_cnt@GOTPCREL(%rip), %rsi
	.loc	2 82 26 is_stmt 1       ## bdf_kern.c:82:26
	movq	-24(%rbp), %rdi
	.loc	2 82 30 is_stmt 0       ## bdf_kern.c:82:30
	movq	-16(%rbp), %r10
	.loc	2 82 3                  ## bdf_kern.c:82:3
	movq	%rsi, -32(%rbp)         ## 8-byte Spill
	movq	%r10, %rsi
	movq	-32(%rbp), %r10         ## 8-byte Reload
	movzwl	(%r10), %ecx
	movl	%eax, -36(%rbp)         ## 4-byte Spill
	callq	_bdf_write_uint16_array
	leaq	L_.str.3(%rip), %rdx
	movq	_bdf_index_to_second_table@GOTPCREL(%rip), %r8
	movq	_bdf_first_table_cnt@GOTPCREL(%rip), %rsi
	.loc	2 83 26 is_stmt 1       ## bdf_kern.c:83:26
	movq	-24(%rbp), %rdi
	.loc	2 83 30 is_stmt 0       ## bdf_kern.c:83:30
	movq	-16(%rbp), %r10
	.loc	2 83 3                  ## bdf_kern.c:83:3
	movq	%rsi, -48(%rbp)         ## 8-byte Spill
	movq	%r10, %rsi
	movq	-48(%rbp), %r10         ## 8-byte Reload
	movzwl	(%r10), %ecx
	callq	_bdf_write_uint16_array
	leaq	L_.str.4(%rip), %rdx
	movq	_bdf_second_encoding_table@GOTPCREL(%rip), %r8
	movq	_bdf_second_table_cnt@GOTPCREL(%rip), %rsi
	.loc	2 84 26 is_stmt 1       ## bdf_kern.c:84:26
	movq	-24(%rbp), %rdi
	.loc	2 84 30 is_stmt 0       ## bdf_kern.c:84:30
	movq	-16(%rbp), %r10
	.loc	2 84 3                  ## bdf_kern.c:84:3
	movq	%rsi, -56(%rbp)         ## 8-byte Spill
	movq	%r10, %rsi
	movq	-56(%rbp), %r10         ## 8-byte Reload
	movzwl	(%r10), %ecx
	callq	_bdf_write_uint16_array
	leaq	L_.str.5(%rip), %rdx
	movq	_bdf_kerning_values@GOTPCREL(%rip), %r8
	movq	_bdf_second_table_cnt@GOTPCREL(%rip), %rsi
	.loc	2 85 25 is_stmt 1       ## bdf_kern.c:85:25
	movq	-24(%rbp), %rdi
	.loc	2 85 29 is_stmt 0       ## bdf_kern.c:85:29
	movq	-16(%rbp), %r10
	.loc	2 85 3                  ## bdf_kern.c:85:3
	movq	%rsi, -64(%rbp)         ## 8-byte Spill
	movq	%r10, %rsi
	movq	-64(%rbp), %r10         ## 8-byte Reload
	movzwl	(%r10), %ecx
	callq	_bdf_write_uint8_array
	leaq	L_.str.6(%rip), %rsi
	.loc	2 88 11 is_stmt 1       ## bdf_kern.c:88:11
	movq	-24(%rbp), %rdi
	.loc	2 88 44 is_stmt 0       ## bdf_kern.c:88:44
	movq	-16(%rbp), %rdx
	.loc	2 88 3                  ## bdf_kern.c:88:3
	movb	$0, %al
	callq	_fprintf
	leaq	L_.str.7(%rip), %rsi
	movq	_bdf_second_table_cnt@GOTPCREL(%rip), %rdx
	movq	_bdf_first_table_cnt@GOTPCREL(%rip), %rdi
	.loc	2 89 11 is_stmt 1       ## bdf_kern.c:89:11
	movq	-24(%rbp), %r8
	.loc	2 89 30 is_stmt 0       ## bdf_kern.c:89:30
	movzwl	(%rdi), %ecx
	.loc	2 89 51                 ## bdf_kern.c:89:51
	movzwl	(%rdx), %r9d
	.loc	2 89 3                  ## bdf_kern.c:89:3
	movq	%r8, %rdi
	movl	%ecx, %edx
	movl	%r9d, %ecx
	movl	%eax, -68(%rbp)         ## 4-byte Spill
	movb	$0, %al
	callq	_fprintf
	leaq	L_.str.8(%rip), %rsi
	leaq	L_.str.2(%rip), %rcx
	.loc	2 90 11 is_stmt 1       ## bdf_kern.c:90:11
	movq	-24(%rbp), %rdi
	.loc	2 90 29 is_stmt 0       ## bdf_kern.c:90:29
	movq	-16(%rbp), %rdx
	.loc	2 90 3                  ## bdf_kern.c:90:3
	movl	%eax, -72(%rbp)         ## 4-byte Spill
	movb	$0, %al
	callq	_fprintf
	leaq	L_.str.8(%rip), %rsi
	leaq	L_.str.3(%rip), %rcx
	.loc	2 91 11 is_stmt 1       ## bdf_kern.c:91:11
	movq	-24(%rbp), %rdi
	.loc	2 91 29 is_stmt 0       ## bdf_kern.c:91:29
	movq	-16(%rbp), %rdx
	.loc	2 91 3                  ## bdf_kern.c:91:3
	movl	%eax, -76(%rbp)         ## 4-byte Spill
	movb	$0, %al
	callq	_fprintf
	leaq	L_.str.8(%rip), %rsi
	leaq	L_.str.4(%rip), %rcx
	.loc	2 92 11 is_stmt 1       ## bdf_kern.c:92:11
	movq	-24(%rbp), %rdi
	.loc	2 92 29 is_stmt 0       ## bdf_kern.c:92:29
	movq	-16(%rbp), %rdx
	.loc	2 92 3                  ## bdf_kern.c:92:3
	movl	%eax, -80(%rbp)         ## 4-byte Spill
	movb	$0, %al
	callq	_fprintf
	leaq	L_.str.9(%rip), %rsi
	leaq	L_.str.5(%rip), %rcx
	.loc	2 93 11 is_stmt 1       ## bdf_kern.c:93:11
	movq	-24(%rbp), %rdi
	.loc	2 93 32 is_stmt 0       ## bdf_kern.c:93:32
	movq	-16(%rbp), %rdx
	.loc	2 93 3                  ## bdf_kern.c:93:3
	movl	%eax, -84(%rbp)         ## 4-byte Spill
	movb	$0, %al
	callq	_fprintf
	.loc	2 94 10 is_stmt 1       ## bdf_kern.c:94:10
	movq	-24(%rbp), %rdi
	.loc	2 94 3 is_stmt 0        ## bdf_kern.c:94:3
	movl	%eax, -88(%rbp)         ## 4-byte Spill
	callq	_fclose
	.loc	2 95 1 is_stmt 1        ## bdf_kern.c:95:1
	movl	%eax, -92(%rbp)         ## 4-byte Spill
	addq	$96, %rsp
	popq	%rbp
	retq
Ltmp1:
Lfunc_end0:
	.cfi_endproc
                                        ## -- End function
	.p2align	4, 0x90         ## -- Begin function bdf_write_uint16_array
_bdf_write_uint16_array:                ## @bdf_write_uint16_array
Lfunc_begin1:
	.loc	2 36 0                  ## bdf_kern.c:36:0
	.cfi_startproc
## BB#0:
	pushq	%rbp
Lcfi3:
	.cfi_def_cfa_offset 16
Lcfi4:
	.cfi_offset %rbp, -16
	movq	%rsp, %rbp
Lcfi5:
	.cfi_def_cfa_register %rbp
	subq	$64, %rsp
	movw	%cx, %ax
	leaq	L_.str.12(%rip), %r9
	movq	%rdi, -8(%rbp)
	movq	%rsi, -16(%rbp)
	movq	%rdx, -24(%rbp)
	movw	%ax, -26(%rbp)
	movq	%r8, -40(%rbp)
Ltmp2:
	.loc	2 39 11 prologue_end    ## bdf_kern.c:39:11
	movq	-8(%rbp), %rdi
	.loc	2 39 58 is_stmt 0       ## bdf_kern.c:39:58
	movq	-16(%rbp), %rdx
	.loc	2 39 63                 ## bdf_kern.c:39:63
	movq	-24(%rbp), %rcx
	.loc	2 39 69                 ## bdf_kern.c:39:69
	movzwl	-26(%rbp), %r8d
	.loc	2 39 3                  ## bdf_kern.c:39:3
	movq	%r9, %rsi
	movb	$0, %al
	callq	_fprintf
Ltmp3:
	.loc	2 40 10 is_stmt 1       ## bdf_kern.c:40:10
	movw	$0, -42(%rbp)
	movl	%eax, -48(%rbp)         ## 4-byte Spill
LBB1_1:                                 ## =>This Inner Loop Header: Depth=1
Ltmp4:
	.loc	2 40 15 is_stmt 0       ## bdf_kern.c:40:15
	movzwl	-42(%rbp), %eax
	.loc	2 40 19                 ## bdf_kern.c:40:19
	movzwl	-26(%rbp), %ecx
	.loc	2 40 17                 ## bdf_kern.c:40:17
	cmpl	%ecx, %eax
Ltmp5:
	.loc	2 40 3                  ## bdf_kern.c:40:3
	jge	LBB1_9
## BB#2:                                ##   in Loop: Header=BB1_1 Depth=1
	.loc	2 0 3                   ## bdf_kern.c:0:3
	leaq	L_.str.13(%rip), %rsi
Ltmp6:
	.loc	2 42 13 is_stmt 1       ## bdf_kern.c:42:13
	movq	-8(%rbp), %rdi
	.loc	2 42 23 is_stmt 0       ## bdf_kern.c:42:23
	movq	-40(%rbp), %rax
	movzwl	-42(%rbp), %ecx
	movl	%ecx, %edx
	movzwl	(%rax,%rdx,2), %edx
	.loc	2 42 5                  ## bdf_kern.c:42:5
	movb	$0, %al
	callq	_fprintf
Ltmp7:
	.loc	2 43 10 is_stmt 1       ## bdf_kern.c:43:10
	movzwl	-42(%rbp), %ecx
	.loc	2 43 11 is_stmt 0       ## bdf_kern.c:43:11
	addl	$1, %ecx
	.loc	2 43 16                 ## bdf_kern.c:43:16
	movzwl	-26(%rbp), %edx
	.loc	2 43 14                 ## bdf_kern.c:43:14
	cmpl	%edx, %ecx
Ltmp8:
	.loc	2 43 10                 ## bdf_kern.c:43:10
	movl	%eax, -52(%rbp)         ## 4-byte Spill
	jge	LBB1_7
## BB#3:                                ##   in Loop: Header=BB1_1 Depth=1
	.loc	2 0 10                  ## bdf_kern.c:0:10
	leaq	L_.str.14(%rip), %rsi
Ltmp9:
	.loc	2 45 15 is_stmt 1       ## bdf_kern.c:45:15
	movq	-8(%rbp), %rdi
	.loc	2 45 7 is_stmt 0        ## bdf_kern.c:45:7
	movb	$0, %al
	callq	_fprintf
	movl	$16, %ecx
Ltmp10:
	.loc	2 46 12 is_stmt 1       ## bdf_kern.c:46:12
	movzwl	-42(%rbp), %edx
	.loc	2 46 14 is_stmt 0       ## bdf_kern.c:46:14
	movl	%eax, -56(%rbp)         ## 4-byte Spill
	movl	%edx, %eax
	cltd
	idivl	%ecx
	.loc	2 46 19                 ## bdf_kern.c:46:19
	cmpl	$0, %edx
	.loc	2 46 24                 ## bdf_kern.c:46:24
	jne	LBB1_6
## BB#4:                                ##   in Loop: Header=BB1_1 Depth=1
	.loc	2 46 27                 ## bdf_kern.c:46:27
	movzwl	-42(%rbp), %eax
	.loc	2 46 29                 ## bdf_kern.c:46:29
	cmpl	$0, %eax
Ltmp11:
	.loc	2 46 12                 ## bdf_kern.c:46:12
	jle	LBB1_6
## BB#5:                                ##   in Loop: Header=BB1_1 Depth=1
	.loc	2 0 12                  ## bdf_kern.c:0:12
	leaq	L_.str.15(%rip), %rsi
Ltmp12:
	.loc	2 48 10 is_stmt 1       ## bdf_kern.c:48:10
	movq	-8(%rbp), %rdi
	.loc	2 48 2 is_stmt 0        ## bdf_kern.c:48:2
	movb	$0, %al
	callq	_fprintf
	movl	%eax, -60(%rbp)         ## 4-byte Spill
Ltmp13:
LBB1_6:                                 ##   in Loop: Header=BB1_1 Depth=1
	.loc	2 50 5 is_stmt 1        ## bdf_kern.c:50:5
	jmp	LBB1_7
Ltmp14:
LBB1_7:                                 ##   in Loop: Header=BB1_1 Depth=1
	.loc	2 51 3                  ## bdf_kern.c:51:3
	jmp	LBB1_8
Ltmp15:
LBB1_8:                                 ##   in Loop: Header=BB1_1 Depth=1
	.loc	2 40 25                 ## bdf_kern.c:40:25
	movw	-42(%rbp), %ax
	addw	$1, %ax
	movw	%ax, -42(%rbp)
	.loc	2 40 3 is_stmt 0        ## bdf_kern.c:40:3
	jmp	LBB1_1
Ltmp16:
LBB1_9:
	.loc	2 0 3                   ## bdf_kern.c:0:3
	leaq	L_.str.16(%rip), %rsi
	.loc	2 52 11 is_stmt 1       ## bdf_kern.c:52:11
	movq	-8(%rbp), %rdi
	.loc	2 52 3 is_stmt 0        ## bdf_kern.c:52:3
	movb	$0, %al
	callq	_fprintf
	.loc	2 53 1 is_stmt 1        ## bdf_kern.c:53:1
	movl	%eax, -64(%rbp)         ## 4-byte Spill
	addq	$64, %rsp
	popq	%rbp
	retq
Ltmp17:
Lfunc_end1:
	.cfi_endproc
                                        ## -- End function
	.p2align	4, 0x90         ## -- Begin function bdf_write_uint8_array
_bdf_write_uint8_array:                 ## @bdf_write_uint8_array
Lfunc_begin2:
	.loc	2 56 0                  ## bdf_kern.c:56:0
	.cfi_startproc
## BB#0:
	pushq	%rbp
Lcfi6:
	.cfi_def_cfa_offset 16
Lcfi7:
	.cfi_offset %rbp, -16
	movq	%rsp, %rbp
Lcfi8:
	.cfi_def_cfa_register %rbp
	subq	$64, %rsp
	movw	%cx, %ax
	leaq	L_.str.17(%rip), %r9
	movq	%rdi, -8(%rbp)
	movq	%rsi, -16(%rbp)
	movq	%rdx, -24(%rbp)
	movw	%ax, -26(%rbp)
	movq	%r8, -40(%rbp)
Ltmp18:
	.loc	2 59 11 prologue_end    ## bdf_kern.c:59:11
	movq	-8(%rbp), %rdi
	.loc	2 59 57 is_stmt 0       ## bdf_kern.c:59:57
	movq	-16(%rbp), %rdx
	.loc	2 59 62                 ## bdf_kern.c:59:62
	movq	-24(%rbp), %rcx
	.loc	2 59 68                 ## bdf_kern.c:59:68
	movzwl	-26(%rbp), %r8d
	.loc	2 59 3                  ## bdf_kern.c:59:3
	movq	%r9, %rsi
	movb	$0, %al
	callq	_fprintf
Ltmp19:
	.loc	2 60 10 is_stmt 1       ## bdf_kern.c:60:10
	movw	$0, -42(%rbp)
	movl	%eax, -48(%rbp)         ## 4-byte Spill
LBB2_1:                                 ## =>This Inner Loop Header: Depth=1
Ltmp20:
	.loc	2 60 15 is_stmt 0       ## bdf_kern.c:60:15
	movzwl	-42(%rbp), %eax
	.loc	2 60 19                 ## bdf_kern.c:60:19
	movzwl	-26(%rbp), %ecx
	.loc	2 60 17                 ## bdf_kern.c:60:17
	cmpl	%ecx, %eax
Ltmp21:
	.loc	2 60 3                  ## bdf_kern.c:60:3
	jge	LBB2_9
## BB#2:                                ##   in Loop: Header=BB2_1 Depth=1
	.loc	2 0 3                   ## bdf_kern.c:0:3
	leaq	L_.str.13(%rip), %rsi
Ltmp22:
	.loc	2 62 13 is_stmt 1       ## bdf_kern.c:62:13
	movq	-8(%rbp), %rdi
	.loc	2 62 23 is_stmt 0       ## bdf_kern.c:62:23
	movq	-40(%rbp), %rax
	movzwl	-42(%rbp), %ecx
	movl	%ecx, %edx
	movzbl	(%rax,%rdx), %edx
	.loc	2 62 5                  ## bdf_kern.c:62:5
	movb	$0, %al
	callq	_fprintf
Ltmp23:
	.loc	2 63 10 is_stmt 1       ## bdf_kern.c:63:10
	movzwl	-42(%rbp), %ecx
	.loc	2 63 11 is_stmt 0       ## bdf_kern.c:63:11
	addl	$1, %ecx
	.loc	2 63 16                 ## bdf_kern.c:63:16
	movzwl	-26(%rbp), %edx
	.loc	2 63 14                 ## bdf_kern.c:63:14
	cmpl	%edx, %ecx
Ltmp24:
	.loc	2 63 10                 ## bdf_kern.c:63:10
	movl	%eax, -52(%rbp)         ## 4-byte Spill
	jge	LBB2_7
## BB#3:                                ##   in Loop: Header=BB2_1 Depth=1
	.loc	2 0 10                  ## bdf_kern.c:0:10
	leaq	L_.str.14(%rip), %rsi
Ltmp25:
	.loc	2 65 15 is_stmt 1       ## bdf_kern.c:65:15
	movq	-8(%rbp), %rdi
	.loc	2 65 7 is_stmt 0        ## bdf_kern.c:65:7
	movb	$0, %al
	callq	_fprintf
	movl	$16, %ecx
Ltmp26:
	.loc	2 66 12 is_stmt 1       ## bdf_kern.c:66:12
	movzwl	-42(%rbp), %edx
	.loc	2 66 14 is_stmt 0       ## bdf_kern.c:66:14
	movl	%eax, -56(%rbp)         ## 4-byte Spill
	movl	%edx, %eax
	cltd
	idivl	%ecx
	.loc	2 66 19                 ## bdf_kern.c:66:19
	cmpl	$0, %edx
	.loc	2 66 24                 ## bdf_kern.c:66:24
	jne	LBB2_6
## BB#4:                                ##   in Loop: Header=BB2_1 Depth=1
	.loc	2 66 27                 ## bdf_kern.c:66:27
	movzwl	-42(%rbp), %eax
	.loc	2 66 29                 ## bdf_kern.c:66:29
	cmpl	$0, %eax
Ltmp27:
	.loc	2 66 12                 ## bdf_kern.c:66:12
	jle	LBB2_6
## BB#5:                                ##   in Loop: Header=BB2_1 Depth=1
	.loc	2 0 12                  ## bdf_kern.c:0:12
	leaq	L_.str.15(%rip), %rsi
Ltmp28:
	.loc	2 68 10 is_stmt 1       ## bdf_kern.c:68:10
	movq	-8(%rbp), %rdi
	.loc	2 68 2 is_stmt 0        ## bdf_kern.c:68:2
	movb	$0, %al
	callq	_fprintf
	movl	%eax, -60(%rbp)         ## 4-byte Spill
Ltmp29:
LBB2_6:                                 ##   in Loop: Header=BB2_1 Depth=1
	.loc	2 70 5 is_stmt 1        ## bdf_kern.c:70:5
	jmp	LBB2_7
Ltmp30:
LBB2_7:                                 ##   in Loop: Header=BB2_1 Depth=1
	.loc	2 71 3                  ## bdf_kern.c:71:3
	jmp	LBB2_8
Ltmp31:
LBB2_8:                                 ##   in Loop: Header=BB2_1 Depth=1
	.loc	2 60 25                 ## bdf_kern.c:60:25
	movw	-42(%rbp), %ax
	addw	$1, %ax
	movw	%ax, -42(%rbp)
	.loc	2 60 3 is_stmt 0        ## bdf_kern.c:60:3
	jmp	LBB2_1
Ltmp32:
LBB2_9:
	.loc	2 0 3                   ## bdf_kern.c:0:3
	leaq	L_.str.16(%rip), %rsi
	.loc	2 72 11 is_stmt 1       ## bdf_kern.c:72:11
	movq	-8(%rbp), %rdi
	.loc	2 72 3 is_stmt 0        ## bdf_kern.c:72:3
	movb	$0, %al
	callq	_fprintf
	.loc	2 73 1 is_stmt 1        ## bdf_kern.c:73:1
	movl	%eax, -64(%rbp)         ## 4-byte Spill
	addq	$64, %rsp
	popq	%rbp
	retq
Ltmp33:
Lfunc_end2:
	.cfi_endproc
                                        ## -- End function
	.globl	_bdf_calculate_kerning  ## -- Begin function bdf_calculate_kerning
	.p2align	4, 0x90
_bdf_calculate_kerning:                 ## @bdf_calculate_kerning
Lfunc_begin3:
	.loc	2 127 0                 ## bdf_kern.c:127:0
	.cfi_startproc
## BB#0:
	pushq	%rbp
Lcfi9:
	.cfi_def_cfa_offset 16
Lcfi10:
	.cfi_offset %rbp, -16
	movq	%rsp, %rbp
Lcfi11:
	.cfi_def_cfa_register %rbp
	subq	$32, %rsp
	movb	%cl, %al
	movw	%dx, %r8w
	movw	%si, %r9w
	movq	%rdi, -8(%rbp)
	movw	%r9w, -10(%rbp)
	movw	%r8w, -12(%rbp)
	movb	%al, -13(%rbp)
Ltmp34:
	.loc	2 133 16 prologue_end   ## bdf_kern.c:133:16
	movq	-8(%rbp), %rdi
	.loc	2 133 3 is_stmt 0       ## bdf_kern.c:133:3
	callq	_tga_set_font
	.loc	2 134 13 is_stmt 1      ## bdf_kern.c:134:13
	callq	_tga_get_char_width
	.loc	2 134 33 is_stmt 0      ## bdf_kern.c:134:33
	addl	$16, %eax
	.loc	2 134 37                ## bdf_kern.c:134:37
	imull	$3, %eax, %eax
	.loc	2 134 12                ## bdf_kern.c:134:12
	movw	%ax, %r8w
	.loc	2 134 43                ## bdf_kern.c:134:43
	movw	%r8w, -18(%rbp)         ## 2-byte Spill
	callq	_tga_get_char_height
	.loc	2 134 64                ## bdf_kern.c:134:64
	addl	$8, %eax
	.loc	2 134 67                ## bdf_kern.c:134:67
	shll	$1, %eax
	.loc	2 134 41                ## bdf_kern.c:134:41
	movw	%ax, %r8w
	.loc	2 134 3                 ## bdf_kern.c:134:3
	movw	-18(%rbp), %r9w         ## 2-byte Reload
	movzwl	%r9w, %edi
	movzwl	%r8w, %esi
	callq	_tga_init
	.loc	2 136 38 is_stmt 1      ## bdf_kern.c:136:38
	movl	%eax, -24(%rbp)         ## 4-byte Spill
	callq	_tga_get_char_width
	movl	$100, %ecx
	.loc	2 136 59 is_stmt 0      ## bdf_kern.c:136:59
	movzbl	-13(%rbp), %edx
	.loc	2 136 58                ## bdf_kern.c:136:58
	imull	%edx, %eax
	.loc	2 136 109               ## bdf_kern.c:136:109
	xorl	%edx, %edx
	divl	%ecx
	.loc	2 136 27                ## bdf_kern.c:136:27
	movb	%al, %r10b
	.loc	2 136 25                ## bdf_kern.c:136:25
	movb	%r10b, -16(%rbp)
	.loc	2 137 17 is_stmt 1      ## bdf_kern.c:137:17
	callq	_tga_get_char_width
	movb	%al, %r10b
	.loc	2 137 15 is_stmt 0      ## bdf_kern.c:137:15
	movb	%r10b, -14(%rbp)
Ltmp35:
	.loc	2 138 16 is_stmt 1      ## bdf_kern.c:138:16
	movb	$0, -15(%rbp)
LBB3_1:                                 ## =>This Inner Loop Header: Depth=1
Ltmp36:
	.loc	2 138 21 is_stmt 0      ## bdf_kern.c:138:21
	movzbl	-15(%rbp), %eax
	.loc	2 138 31                ## bdf_kern.c:138:31
	movzbl	-14(%rbp), %ecx
	.loc	2 138 29                ## bdf_kern.c:138:29
	cmpl	%ecx, %eax
Ltmp37:
	.loc	2 138 3                 ## bdf_kern.c:138:3
	jge	LBB3_6
## BB#2:                                ##   in Loop: Header=BB3_1 Depth=1
	.loc	2 0 3                   ## bdf_kern.c:0:3
	xorl	%r8d, %r8d
Ltmp38:
	.loc	2 140 31 is_stmt 1      ## bdf_kern.c:140:31
	movq	-8(%rbp), %rdi
	.loc	2 140 37 is_stmt 0      ## bdf_kern.c:140:37
	movw	-10(%rbp), %ax
	.loc	2 140 41                ## bdf_kern.c:140:41
	movw	-12(%rbp), %cx
	.loc	2 140 10                ## bdf_kern.c:140:10
	movzwl	%ax, %esi
	movzwl	%cx, %edx
	movzbl	-15(%rbp), %ecx
	callq	_bdf_is_glyph_overlap
	.loc	2 140 57                ## bdf_kern.c:140:57
	cmpl	$0, %eax
Ltmp39:
	.loc	2 140 10                ## bdf_kern.c:140:10
	je	LBB3_4
## BB#3:
Ltmp40:
	.loc	2 141 7 is_stmt 1       ## bdf_kern.c:141:7
	jmp	LBB3_6
Ltmp41:
LBB3_4:                                 ##   in Loop: Header=BB3_1 Depth=1
	.loc	2 142 3                 ## bdf_kern.c:142:3
	jmp	LBB3_5
Ltmp42:
LBB3_5:                                 ##   in Loop: Header=BB3_1 Depth=1
	.loc	2 138 51                ## bdf_kern.c:138:51
	movb	-15(%rbp), %al
	addb	$1, %al
	movb	%al, -15(%rbp)
	.loc	2 138 3 is_stmt 0       ## bdf_kern.c:138:3
	jmp	LBB3_1
Ltmp43:
LBB3_6:
	.loc	2 143 8 is_stmt 1       ## bdf_kern.c:143:8
	movzbl	-15(%rbp), %eax
	.loc	2 143 19 is_stmt 0      ## bdf_kern.c:143:19
	movzbl	-14(%rbp), %ecx
	.loc	2 143 16                ## bdf_kern.c:143:16
	cmpl	%ecx, %eax
Ltmp44:
	.loc	2 143 8                 ## bdf_kern.c:143:8
	jl	LBB3_8
## BB#7:
Ltmp45:
	.loc	2 144 13 is_stmt 1      ## bdf_kern.c:144:13
	movb	$0, -15(%rbp)
Ltmp46:
LBB3_8:
	.loc	2 145 8                 ## bdf_kern.c:145:8
	movzbl	-15(%rbp), %eax
	.loc	2 145 18 is_stmt 0      ## bdf_kern.c:145:18
	movzbl	-16(%rbp), %ecx
	.loc	2 145 16                ## bdf_kern.c:145:16
	cmpl	%ecx, %eax
Ltmp47:
	.loc	2 145 8                 ## bdf_kern.c:145:8
	jge	LBB3_10
## BB#9:
Ltmp48:
	.loc	2 146 13 is_stmt 1      ## bdf_kern.c:146:13
	movb	$0, -15(%rbp)
	.loc	2 146 5 is_stmt 0       ## bdf_kern.c:146:5
	jmp	LBB3_11
LBB3_10:
	.loc	2 148 16 is_stmt 1      ## bdf_kern.c:148:16
	movzbl	-16(%rbp), %eax
	.loc	2 148 13 is_stmt 0      ## bdf_kern.c:148:13
	movzbl	-15(%rbp), %ecx
	subl	%eax, %ecx
	movb	%cl, %dl
	movb	%dl, -15(%rbp)
Ltmp49:
LBB3_11:
	.loc	2 150 8 is_stmt 1       ## bdf_kern.c:150:8
	movzbl	-15(%rbp), %eax
	.loc	2 150 16 is_stmt 0      ## bdf_kern.c:150:16
	cmpl	$0, %eax
Ltmp50:
	.loc	2 150 8                 ## bdf_kern.c:150:8
	je	LBB3_13
## BB#12:
	.loc	2 0 8                   ## bdf_kern.c:0:8
	movl	$1, %r8d
Ltmp51:
	.loc	2 152 26 is_stmt 1      ## bdf_kern.c:152:26
	movq	-8(%rbp), %rdi
	.loc	2 152 32 is_stmt 0      ## bdf_kern.c:152:32
	movw	-10(%rbp), %ax
	.loc	2 152 36                ## bdf_kern.c:152:36
	movw	-12(%rbp), %cx
	.loc	2 152 5                 ## bdf_kern.c:152:5
	movzwl	%ax, %esi
	movzwl	%cx, %edx
	movzbl	-15(%rbp), %ecx
	callq	_bdf_is_glyph_overlap
	movl	%eax, -28(%rbp)         ## 4-byte Spill
Ltmp52:
LBB3_13:
	.loc	2 156 10 is_stmt 1      ## bdf_kern.c:156:10
	movzbl	-15(%rbp), %eax
	.loc	2 156 3 is_stmt 0       ## bdf_kern.c:156:3
	addq	$32, %rsp
	popq	%rbp
	retq
Ltmp53:
Lfunc_end3:
	.cfi_endproc
                                        ## -- End function
	.p2align	4, 0x90         ## -- Begin function bdf_is_glyph_overlap
_bdf_is_glyph_overlap:                  ## @bdf_is_glyph_overlap
Lfunc_begin4:
	.loc	2 105 0 is_stmt 1       ## bdf_kern.c:105:0
	.cfi_startproc
## BB#0:
	pushq	%rbp
Lcfi12:
	.cfi_def_cfa_offset 16
Lcfi13:
	.cfi_offset %rbp, -16
	movq	%rsp, %rbp
Lcfi14:
	.cfi_def_cfa_register %rbp
	subq	$32, %rsp
	movb	%cl, %al
	movw	%dx, %r9w
	movw	%si, %r10w
	movq	%rdi, -8(%rbp)
	movw	%r10w, -10(%rbp)
	movw	%r9w, -12(%rbp)
	movb	%al, -13(%rbp)
	movl	%r8d, -20(%rbp)
Ltmp54:
	.loc	2 107 3 prologue_end    ## bdf_kern.c:107:3
	callq	_tga_clear
	.loc	2 109 5                 ## bdf_kern.c:109:5
	movl	$8, -24(%rbp)
	.loc	2 110 7                 ## bdf_kern.c:110:7
	callq	_tga_get_char_height
	xorl	%ecx, %ecx
	.loc	2 110 5 is_stmt 0       ## bdf_kern.c:110:5
	movl	%eax, -28(%rbp)
	.loc	2 111 23 is_stmt 1      ## bdf_kern.c:111:23
	movl	-24(%rbp), %edi
	.loc	2 111 26 is_stmt 0      ## bdf_kern.c:111:26
	movl	-28(%rbp), %esi
	.loc	2 111 8                 ## bdf_kern.c:111:8
	movzwl	-10(%rbp), %edx
	callq	_tga_draw_glyph
	.loc	2 111 5                 ## bdf_kern.c:111:5
	addl	-24(%rbp), %eax
	movl	%eax, -24(%rbp)
	.loc	2 112 8 is_stmt 1       ## bdf_kern.c:112:8
	movzbl	-13(%rbp), %eax
	.loc	2 112 5 is_stmt 0       ## bdf_kern.c:112:5
	movl	-24(%rbp), %ecx
	subl	%eax, %ecx
	movl	%ecx, -24(%rbp)
	.loc	2 113 3 is_stmt 1       ## bdf_kern.c:113:3
	callq	_tga_clear_pixel_intersection
	xorl	%ecx, %ecx
	.loc	2 114 23                ## bdf_kern.c:114:23
	movl	-24(%rbp), %edi
	.loc	2 114 26 is_stmt 0      ## bdf_kern.c:114:26
	movl	-28(%rbp), %esi
	.loc	2 114 8                 ## bdf_kern.c:114:8
	movzwl	-12(%rbp), %edx
	callq	_tga_draw_glyph
	.loc	2 114 5                 ## bdf_kern.c:114:5
	addl	-24(%rbp), %eax
	movl	%eax, -24(%rbp)
Ltmp55:
	.loc	2 116 8 is_stmt 1       ## bdf_kern.c:116:8
	cmpl	$0, -20(%rbp)
Ltmp56:
	.loc	2 116 8 is_stmt 0       ## bdf_kern.c:116:8
	je	LBB4_2
## BB#1:
Ltmp57:
	.loc	2 121 3 is_stmt 1       ## bdf_kern.c:121:3
	jmp	LBB4_2
Ltmp58:
LBB4_2:
	.loc	2 123 10                ## bdf_kern.c:123:10
	callq	_tga_is_pixel_intersection
	.loc	2 123 3 is_stmt 0       ## bdf_kern.c:123:3
	addq	$32, %rsp
	popq	%rbp
	retq
Ltmp59:
Lfunc_end4:
	.cfi_endproc
                                        ## -- End function
	.globl	_bdf_calculate_all_kerning ## -- Begin function bdf_calculate_all_kerning
	.p2align	4, 0x90
_bdf_calculate_all_kerning:             ## @bdf_calculate_all_kerning
Lfunc_begin5:
	.loc	2 160 0 is_stmt 1       ## bdf_kern.c:160:0
	.cfi_startproc
## BB#0:
	pushq	%rbp
Lcfi15:
	.cfi_def_cfa_offset 16
Lcfi16:
	.cfi_offset %rbp, -16
	movq	%rsp, %rbp
Lcfi17:
	.cfi_def_cfa_register %rbp
	subq	$80, %rsp
	movb	%cl, %al
	movq	_bdf_second_table_cnt@GOTPCREL(%rip), %r8
	movq	_bdf_first_table_cnt@GOTPCREL(%rip), %r9
	movq	%rdi, -8(%rbp)
	movq	%rsi, -16(%rbp)
	movq	%rdx, -24(%rbp)
	movb	%al, -25(%rbp)
Ltmp60:
	.loc	2 168 23 prologue_end   ## bdf_kern.c:168:23
	movw	$0, (%r9)
	.loc	2 169 24                ## bdf_kern.c:169:24
	movw	$0, (%r8)
Ltmp61:
	.loc	2 171 13                ## bdf_kern.c:171:13
	movl	$0, -32(%rbp)
LBB5_1:                                 ## =>This Loop Header: Depth=1
                                        ##     Child Loop BB5_5 Depth 2
Ltmp62:
	.loc	2 171 18 is_stmt 0      ## bdf_kern.c:171:18
	movl	-32(%rbp), %eax
	.loc	2 171 26                ## bdf_kern.c:171:26
	movq	-8(%rbp), %rcx
	.loc	2 171 24                ## bdf_kern.c:171:24
	cmpl	16(%rcx), %eax
Ltmp63:
	.loc	2 171 3                 ## bdf_kern.c:171:3
	jge	LBB5_22
## BB#2:                                ##   in Loop: Header=BB5_1 Depth=1
Ltmp64:
	.loc	2 173 29 is_stmt 1      ## bdf_kern.c:173:29
	movl	$0, -64(%rbp)
	.loc	2 174 16                ## bdf_kern.c:174:16
	movq	-8(%rbp), %rax
	.loc	2 174 20 is_stmt 0      ## bdf_kern.c:174:20
	movq	8(%rax), %rax
	.loc	2 174 16                ## bdf_kern.c:174:16
	movslq	-32(%rbp), %rcx
	movq	(%rax,%rcx,8), %rax
	.loc	2 174 14                ## bdf_kern.c:174:14
	movq	%rax, -48(%rbp)
Ltmp65:
	.loc	2 175 10 is_stmt 1      ## bdf_kern.c:175:10
	movq	-48(%rbp), %rax
	.loc	2 175 32 is_stmt 0      ## bdf_kern.c:175:32
	cmpq	$0, 104(%rax)
	.loc	2 175 40                ## bdf_kern.c:175:40
	je	LBB5_20
## BB#3:                                ##   in Loop: Header=BB5_1 Depth=1
	.loc	2 175 43                ## bdf_kern.c:175:43
	movq	-48(%rbp), %rax
	.loc	2 175 78                ## bdf_kern.c:175:78
	cmpl	$0, 80(%rax)
Ltmp66:
	.loc	2 175 10                ## bdf_kern.c:175:10
	jne	LBB5_20
## BB#4:                                ##   in Loop: Header=BB5_1 Depth=1
Ltmp67:
	.loc	2 177 18 is_stmt 1      ## bdf_kern.c:177:18
	movl	$0, -36(%rbp)
LBB5_5:                                 ##   Parent Loop BB5_1 Depth=1
                                        ## =>  This Inner Loop Header: Depth=2
Ltmp68:
	.loc	2 177 23 is_stmt 0      ## bdf_kern.c:177:23
	movl	-36(%rbp), %eax
	.loc	2 177 32                ## bdf_kern.c:177:32
	movq	-8(%rbp), %rcx
	.loc	2 177 30                ## bdf_kern.c:177:30
	cmpl	16(%rcx), %eax
Ltmp69:
	.loc	2 177 7                 ## bdf_kern.c:177:7
	jge	LBB5_19
## BB#6:                                ##   in Loop: Header=BB5_5 Depth=2
Ltmp70:
	.loc	2 179 21 is_stmt 1      ## bdf_kern.c:179:21
	movq	-8(%rbp), %rax
	.loc	2 179 25 is_stmt 0      ## bdf_kern.c:179:25
	movq	8(%rax), %rax
	.loc	2 179 21                ## bdf_kern.c:179:21
	movslq	-36(%rbp), %rcx
	movq	(%rax,%rcx,8), %rax
	.loc	2 179 19                ## bdf_kern.c:179:19
	movq	%rax, -56(%rbp)
Ltmp71:
	.loc	2 180 14 is_stmt 1      ## bdf_kern.c:180:14
	movq	-56(%rbp), %rax
	.loc	2 180 37 is_stmt 0      ## bdf_kern.c:180:37
	cmpq	$0, 104(%rax)
	.loc	2 180 45                ## bdf_kern.c:180:45
	je	LBB5_17
## BB#7:                                ##   in Loop: Header=BB5_5 Depth=2
	.loc	2 180 48                ## bdf_kern.c:180:48
	movq	-56(%rbp), %rax
	.loc	2 180 84                ## bdf_kern.c:180:84
	cmpl	$0, 80(%rax)
Ltmp72:
	.loc	2 180 14                ## bdf_kern.c:180:14
	jne	LBB5_17
## BB#8:                                ##   in Loop: Header=BB5_5 Depth=2
Ltmp73:
	.loc	2 182 43 is_stmt 1      ## bdf_kern.c:182:43
	movq	-8(%rbp), %rax
	.loc	2 182 47 is_stmt 0      ## bdf_kern.c:182:47
	movq	1288(%rax), %rdi
	.loc	2 182 60                ## bdf_kern.c:182:60
	movq	-48(%rbp), %rax
	.loc	2 182 70                ## bdf_kern.c:182:70
	movq	8(%rax), %rax
	.loc	2 182 60                ## bdf_kern.c:182:60
	movw	%ax, %cx
	.loc	2 182 80                ## bdf_kern.c:182:80
	movq	-56(%rbp), %rax
	.loc	2 182 91                ## bdf_kern.c:182:91
	movq	8(%rax), %rax
	.loc	2 182 80                ## bdf_kern.c:182:80
	movw	%ax, %dx
	.loc	2 182 21                ## bdf_kern.c:182:21
	movzwl	%cx, %esi
	movzwl	%dx, %edx
	movzbl	-25(%rbp), %ecx
	callq	_bdf_calculate_kerning
	movb	%al, %r8b
	.loc	2 182 19                ## bdf_kern.c:182:19
	movb	%r8b, -57(%rbp)
Ltmp74:
	.loc	2 183 9 is_stmt 1       ## bdf_kern.c:183:9
	movzbl	-57(%rbp), %eax
	.loc	2 183 17 is_stmt 0      ## bdf_kern.c:183:17
	cmpl	$1, %eax
Ltmp75:
	.loc	2 183 9                 ## bdf_kern.c:183:9
	jle	LBB5_16
## BB#9:                                ##   in Loop: Header=BB5_5 Depth=2
Ltmp76:
	.loc	2 185 35 is_stmt 1      ## bdf_kern.c:185:35
	cmpl	$0, -64(%rbp)
Ltmp77:
	.loc	2 185 11 is_stmt 0      ## bdf_kern.c:185:11
	jne	LBB5_13
## BB#10:                               ##   in Loop: Header=BB5_5 Depth=2
	.loc	2 0 11                  ## bdf_kern.c:0:11
	movq	_bdf_first_table_cnt@GOTPCREL(%rip), %rax
	movq	_bdf_index_to_second_table@GOTPCREL(%rip), %rcx
	movq	_bdf_second_table_cnt@GOTPCREL(%rip), %rdx
	movq	_bdf_first_encoding_table@GOTPCREL(%rip), %rsi
Ltmp78:
	.loc	2 187 56 is_stmt 1      ## bdf_kern.c:187:56
	movq	-48(%rbp), %rdi
	.loc	2 187 66 is_stmt 0      ## bdf_kern.c:187:66
	movq	8(%rdi), %rdi
	.loc	2 187 56                ## bdf_kern.c:187:56
	movw	%di, %r8w
	.loc	2 187 8                 ## bdf_kern.c:187:8
	movzwl	(%rax), %r9d
	movl	%r9d, %edi
	.loc	2 187 54                ## bdf_kern.c:187:54
	movw	%r8w, (%rsi,%rdi,2)
	.loc	2 188 58 is_stmt 1      ## bdf_kern.c:188:58
	movw	(%rdx), %r8w
	.loc	2 188 8 is_stmt 0       ## bdf_kern.c:188:8
	movzwl	(%rax), %r9d
	movl	%r9d, %edx
	.loc	2 188 56                ## bdf_kern.c:188:56
	movw	%r8w, (%rcx,%rdx,2)
	.loc	2 189 27 is_stmt 1      ## bdf_kern.c:189:27
	movw	(%rax), %r8w
	addw	$1, %r8w
	movw	%r8w, (%rax)
Ltmp79:
	.loc	2 190 12                ## bdf_kern.c:190:12
	movzwl	(%rax), %r9d
	.loc	2 190 32 is_stmt 0      ## bdf_kern.c:190:32
	cmpl	$61440, %r9d            ## imm = 0xF000
Ltmp80:
	.loc	2 190 12                ## bdf_kern.c:190:12
	jle	LBB5_12
## BB#11:
	.loc	2 0 12                  ## bdf_kern.c:0:12
	leaq	L_.str.10(%rip), %rsi
	movq	___stderrp@GOTPCREL(%rip), %rax
Ltmp81:
	.loc	2 192 17 is_stmt 1      ## bdf_kern.c:192:17
	movq	(%rax), %rdi
	.loc	2 192 9 is_stmt 0       ## bdf_kern.c:192:9
	movb	$0, %al
	callq	_fprintf
	.loc	2 193 9 is_stmt 1       ## bdf_kern.c:193:9
	movl	%eax, -68(%rbp)         ## 4-byte Spill
	jmp	LBB5_23
Ltmp82:
LBB5_12:                                ##   in Loop: Header=BB5_5 Depth=2
	.loc	2 195 32                ## bdf_kern.c:195:32
	movl	$1, -64(%rbp)
Ltmp83:
LBB5_13:                                ##   in Loop: Header=BB5_5 Depth=2
	.loc	2 0 32 is_stmt 0        ## bdf_kern.c:0:32
	movq	_bdf_second_table_cnt@GOTPCREL(%rip), %rax
	movq	_bdf_kerning_values@GOTPCREL(%rip), %rcx
	movq	_bdf_second_encoding_table@GOTPCREL(%rip), %rdx
	.loc	2 197 56 is_stmt 1      ## bdf_kern.c:197:56
	movq	-56(%rbp), %rsi
	.loc	2 197 67 is_stmt 0      ## bdf_kern.c:197:67
	movq	8(%rsi), %rsi
	.loc	2 197 56                ## bdf_kern.c:197:56
	movw	%si, %di
	.loc	2 197 6                 ## bdf_kern.c:197:6
	movzwl	(%rax), %r8d
	movl	%r8d, %esi
	.loc	2 197 54                ## bdf_kern.c:197:54
	movw	%di, (%rdx,%rsi,2)
	.loc	2 198 49 is_stmt 1      ## bdf_kern.c:198:49
	movb	-57(%rbp), %r9b
	.loc	2 198 6 is_stmt 0       ## bdf_kern.c:198:6
	movzwl	(%rax), %r8d
	movl	%r8d, %edx
	.loc	2 198 47                ## bdf_kern.c:198:47
	movb	%r9b, (%rcx,%rdx)
	.loc	2 199 26 is_stmt 1      ## bdf_kern.c:199:26
	movw	(%rax), %di
	addw	$1, %di
	movw	%di, (%rax)
Ltmp84:
	.loc	2 200 10                ## bdf_kern.c:200:10
	movzwl	(%rax), %r8d
	.loc	2 200 31 is_stmt 0      ## bdf_kern.c:200:31
	cmpl	$61440, %r8d            ## imm = 0xF000
Ltmp85:
	.loc	2 200 10                ## bdf_kern.c:200:10
	jle	LBB5_15
## BB#14:
	.loc	2 0 10                  ## bdf_kern.c:0:10
	leaq	L_.str.11(%rip), %rsi
	movq	___stderrp@GOTPCREL(%rip), %rax
Ltmp86:
	.loc	2 202 17 is_stmt 1      ## bdf_kern.c:202:17
	movq	(%rax), %rdi
	.loc	2 202 9 is_stmt 0       ## bdf_kern.c:202:9
	movb	$0, %al
	callq	_fprintf
	.loc	2 203 9 is_stmt 1       ## bdf_kern.c:203:9
	movl	%eax, -72(%rbp)         ## 4-byte Spill
	jmp	LBB5_23
Ltmp87:
LBB5_15:                                ##   in Loop: Header=BB5_5 Depth=2
	.loc	2 205 4                 ## bdf_kern.c:205:4
	jmp	LBB5_16
Ltmp88:
LBB5_16:                                ##   in Loop: Header=BB5_5 Depth=2
	.loc	2 206 9                 ## bdf_kern.c:206:9
	jmp	LBB5_17
Ltmp89:
LBB5_17:                                ##   in Loop: Header=BB5_5 Depth=2
	.loc	2 207 7                 ## bdf_kern.c:207:7
	jmp	LBB5_18
Ltmp90:
LBB5_18:                                ##   in Loop: Header=BB5_5 Depth=2
	.loc	2 177 53                ## bdf_kern.c:177:53
	movl	-36(%rbp), %eax
	addl	$1, %eax
	movl	%eax, -36(%rbp)
	.loc	2 177 7 is_stmt 0       ## bdf_kern.c:177:7
	jmp	LBB5_5
Ltmp91:
LBB5_19:                                ##   in Loop: Header=BB5_1 Depth=1
	.loc	2 208 5 is_stmt 1       ## bdf_kern.c:208:5
	jmp	LBB5_20
Ltmp92:
LBB5_20:                                ##   in Loop: Header=BB5_1 Depth=1
	.loc	2 209 3                 ## bdf_kern.c:209:3
	jmp	LBB5_21
Ltmp93:
LBB5_21:                                ##   in Loop: Header=BB5_1 Depth=1
	.loc	2 171 46                ## bdf_kern.c:171:46
	movl	-32(%rbp), %eax
	addl	$1, %eax
	movl	%eax, -32(%rbp)
	.loc	2 171 3 is_stmt 0       ## bdf_kern.c:171:3
	jmp	LBB5_1
Ltmp94:
LBB5_22:
	.loc	2 0 3                   ## bdf_kern.c:0:3
	movq	_bdf_first_table_cnt@GOTPCREL(%rip), %rax
	movq	_bdf_index_to_second_table@GOTPCREL(%rip), %rcx
	movq	_bdf_second_table_cnt@GOTPCREL(%rip), %rdx
	movq	_bdf_first_encoding_table@GOTPCREL(%rip), %rsi
	.loc	2 211 3 is_stmt 1       ## bdf_kern.c:211:3
	movzwl	(%rax), %edi
	movl	%edi, %r8d
	.loc	2 211 49 is_stmt 0      ## bdf_kern.c:211:49
	movw	$-1, (%rsi,%r8,2)
	.loc	2 212 53 is_stmt 1      ## bdf_kern.c:212:53
	movw	(%rdx), %r9w
	.loc	2 212 3 is_stmt 0       ## bdf_kern.c:212:3
	movzwl	(%rax), %edi
	movl	%edi, %edx
	.loc	2 212 51                ## bdf_kern.c:212:51
	movw	%r9w, (%rcx,%rdx,2)
	.loc	2 213 22 is_stmt 1      ## bdf_kern.c:213:22
	movw	(%rax), %r9w
	addw	$1, %r9w
	movw	%r9w, (%rax)
	.loc	2 215 26                ## bdf_kern.c:215:26
	movq	-16(%rbp), %rdi
	.loc	2 215 36 is_stmt 0      ## bdf_kern.c:215:36
	movq	-24(%rbp), %rsi
	.loc	2 215 3                 ## bdf_kern.c:215:3
	callq	_bdf_write_kerning_file
LBB5_23:
	.loc	2 216 1 is_stmt 1       ## bdf_kern.c:216:1
	addq	$80, %rsp
	popq	%rbp
	retq
Ltmp95:
Lfunc_end5:
	.cfi_endproc
                                        ## -- End function
	.section	__TEXT,__cstring,cstring_literals
L_.str:                                 ## @.str
	.asciz	"w"

L_.str.1:                               ## @.str.1
	.asciz	"/* %s, Size: %u Bytes */\n"

	.comm	_bdf_first_table_cnt,2,1 ## @bdf_first_table_cnt
	.comm	_bdf_second_table_cnt,2,1 ## @bdf_second_table_cnt
L_.str.2:                               ## @.str.2
	.asciz	"first_encoding_table"

	.comm	_bdf_first_encoding_table,122880,4 ## @bdf_first_encoding_table
L_.str.3:                               ## @.str.3
	.asciz	"index_to_second_table"

	.comm	_bdf_index_to_second_table,122880,4 ## @bdf_index_to_second_table
L_.str.4:                               ## @.str.4
	.asciz	"second_encoding_table"

	.comm	_bdf_second_encoding_table,122880,4 ## @bdf_second_encoding_table
L_.str.5:                               ## @.str.5
	.asciz	"kerning_values"

	.comm	_bdf_kerning_values,61440,4 ## @bdf_kerning_values
L_.str.6:                               ## @.str.6
	.asciz	"u8g2_kerning_t %s_k = {\n"

L_.str.7:                               ## @.str.7
	.asciz	"  %u, %u,\n"

L_.str.8:                               ## @.str.8
	.asciz	"  %s_%s,\n"

L_.str.9:                               ## @.str.9
	.asciz	"  %s_%s};\n\n"

L_.str.10:                              ## @.str.10
	.asciz	"Kerning calculation aborted: bdf_first_table_cnt > BDF_KERNING_MAX\n"

L_.str.11:                              ## @.str.11
	.asciz	"Kerning calculation aborted: bdf_second_table_cnt > BDF_KERNING_MAX\n"

L_.str.12:                              ## @.str.12
	.asciz	"static const uint16_t %s_%s[%u] = {\n  "

L_.str.13:                              ## @.str.13
	.asciz	"%u"

L_.str.14:                              ## @.str.14
	.asciz	", "

L_.str.15:                              ## @.str.15
	.asciz	"\n  "

L_.str.16:                              ## @.str.16
	.asciz	"};\n"

L_.str.17:                              ## @.str.17
	.asciz	"static const uint8_t %s_%s[%u] = {\n  "

	.file	4 "/usr/include" "_stdio.h"
	.file	5 "/usr/include/i386" "_types.h"
	.file	6 "/usr/include/sys" "_types.h"
	.file	7 "." "bdf_font.h"
	.file	8 "." "bdf_glyph.h"