	.section	__TEXT,__text,regular,pure_instructions
	.macosx_version_min 10, 13
	.globl	_bg_8x8_convert         ## -- Begin function bg_8x8_convert
	.p2align	4, 0x90
_bg_8x8_convert:                        ## @bg_8x8_convert
Lfunc_begin0:
	.file	1 "bdf_8x8.c"
	.loc	1 21 0                  ## bdf_8x8.c:21:0
	.cfi_startproc
## BB#0:
	pushq	%rbp
Lcfi0:
	.cfi_def_cfa_offset 16
Lcfi1:
	.cfi_offset %rbp, -16
	movq	%rsp, %rbp
Lcfi2:
	.cfi_def_cfa_register %rbp
	subq	$48, %rsp
	movq	%rdi, -16(%rbp)
	movq	%rsi, -24(%rbp)
Ltmp0:
	.loc	1 26 12 prologue_end    ## bdf_8x8.c:26:12
	cmpq	$0, -24(%rbp)
Ltmp1:
	.loc	1 26 8 is_stmt 0        ## bdf_8x8.c:26:8
	jne	LBB0_2
## BB#1:
Ltmp2:
	.loc	1 27 13 is_stmt 1       ## bdf_8x8.c:27:13
	movq	-16(%rbp), %rax
	.loc	1 27 17 is_stmt 0       ## bdf_8x8.c:27:17
	addq	$40, %rax
	.loc	1 27 9                  ## bdf_8x8.c:27:9
	movq	%rax, -24(%rbp)
Ltmp3:
LBB0_2:
	.loc	1 29 22 is_stmt 1       ## bdf_8x8.c:29:22
	movq	-16(%rbp), %rdi
	.loc	1 29 3 is_stmt 0        ## bdf_8x8.c:29:3
	callq	_bg_ClearTargetData
Ltmp4:
	.loc	1 31 8 is_stmt 1        ## bdf_8x8.c:31:8
	movq	-24(%rbp), %rdi
	.loc	1 31 15 is_stmt 0       ## bdf_8x8.c:31:15
	cmpq	$8, (%rdi)
Ltmp5:
	.loc	1 31 8                  ## bdf_8x8.c:31:8
	je	LBB0_4
## BB#3:
Ltmp6:
	.loc	1 32 5 is_stmt 1        ## bdf_8x8.c:32:5
	movl	$0, -4(%rbp)
	jmp	LBB0_19
Ltmp7:
LBB0_4:
	.loc	1 33 8                  ## bdf_8x8.c:33:8
	movq	-24(%rbp), %rax
	.loc	1 33 15 is_stmt 0       ## bdf_8x8.c:33:15
	cmpq	$8, 8(%rax)
Ltmp8:
	.loc	1 33 8                  ## bdf_8x8.c:33:8
	je	LBB0_6
## BB#5:
Ltmp9:
	.loc	1 34 5 is_stmt 1        ## bdf_8x8.c:34:5
	movl	$0, -4(%rbp)
	jmp	LBB0_19
Ltmp10:
LBB0_6:
	.loc	1 54 12                 ## bdf_8x8.c:54:12
	movq	-24(%rbp), %rax
	.loc	1 54 17 is_stmt 0       ## bdf_8x8.c:54:17
	movq	16(%rax), %rax
	.loc	1 54 12                 ## bdf_8x8.c:54:12
	movl	%eax, %ecx
	.loc	1 54 10                 ## bdf_8x8.c:54:10
	movl	%ecx, -28(%rbp)
LBB0_7:                                 ## =>This Loop Header: Depth=1
                                        ##     Child Loop BB0_9 Depth 2
Ltmp11:
	.loc	1 54 20                 ## bdf_8x8.c:54:20
	movslq	-28(%rbp), %rax
	.loc	1 54 24                 ## bdf_8x8.c:54:24
	movq	-24(%rbp), %rcx
	.loc	1 54 29                 ## bdf_8x8.c:54:29
	movq	16(%rcx), %rcx
	.loc	1 54 33                 ## bdf_8x8.c:54:33
	movq	-24(%rbp), %rdx
	.loc	1 54 31                 ## bdf_8x8.c:54:31
	addq	(%rdx), %rcx
	.loc	1 54 22                 ## bdf_8x8.c:54:22
	cmpq	%rcx, %rax
Ltmp12:
	.loc	1 54 3                  ## bdf_8x8.c:54:3
	jge	LBB0_18
## BB#8:                                ##   in Loop: Header=BB0_7 Depth=1
Ltmp13:
	.loc	1 56 7 is_stmt 1        ## bdf_8x8.c:56:7
	movl	$0, -36(%rbp)
Ltmp14:
	.loc	1 57 14                 ## bdf_8x8.c:57:14
	movq	-24(%rbp), %rax
	.loc	1 57 19 is_stmt 0       ## bdf_8x8.c:57:19
	movq	24(%rax), %rax
	.loc	1 57 21                 ## bdf_8x8.c:57:21
	movq	-24(%rbp), %rcx
	.loc	1 57 20                 ## bdf_8x8.c:57:20
	addq	8(%rcx), %rax
	.loc	1 57 27                 ## bdf_8x8.c:57:27
	subq	$1, %rax
	.loc	1 57 14                 ## bdf_8x8.c:57:14
	movl	%eax, %edx
	.loc	1 57 12                 ## bdf_8x8.c:57:12
	movl	%edx, -32(%rbp)
LBB0_9:                                 ##   Parent Loop BB0_7 Depth=1
                                        ## =>  This Inner Loop Header: Depth=2
Ltmp15:
	.loc	1 57 31                 ## bdf_8x8.c:57:31
	movslq	-32(%rbp), %rax
	.loc	1 57 36                 ## bdf_8x8.c:57:36
	movq	-24(%rbp), %rcx
	.loc	1 57 33                 ## bdf_8x8.c:57:33
	cmpq	24(%rcx), %rax
Ltmp16:
	.loc	1 57 5                  ## bdf_8x8.c:57:5
	jl	LBB0_14
## BB#10:                               ##   in Loop: Header=BB0_9 Depth=2
Ltmp17:
	.loc	1 59 9 is_stmt 1        ## bdf_8x8.c:59:9
	movl	-36(%rbp), %eax
	sarl	$1, %eax
	movl	%eax, -36(%rbp)
Ltmp18:
	.loc	1 60 27                 ## bdf_8x8.c:60:27
	movq	-16(%rbp), %rdi
	.loc	1 60 31 is_stmt 0       ## bdf_8x8.c:60:31
	movl	-28(%rbp), %esi
	.loc	1 60 34                 ## bdf_8x8.c:60:34
	movl	-32(%rbp), %edx
	.loc	1 60 12                 ## bdf_8x8.c:60:12
	callq	_bg_GetBBXPixel
	.loc	1 60 37                 ## bdf_8x8.c:60:37
	cmpl	$0, %eax
Ltmp19:
	.loc	1 60 12                 ## bdf_8x8.c:60:12
	je	LBB0_12
## BB#11:                               ##   in Loop: Header=BB0_9 Depth=2
Ltmp20:
	.loc	1 62 4 is_stmt 1        ## bdf_8x8.c:62:4
	movl	-36(%rbp), %eax
	orl	$128, %eax
	movl	%eax, -36(%rbp)
Ltmp21:
LBB0_12:                                ##   in Loop: Header=BB0_9 Depth=2
	.loc	1 64 5                  ## bdf_8x8.c:64:5
	jmp	LBB0_13
Ltmp22:
LBB0_13:                                ##   in Loop: Header=BB0_9 Depth=2
	.loc	1 57 45                 ## bdf_8x8.c:57:45
	movl	-32(%rbp), %eax
	addl	$-1, %eax
	movl	%eax, -32(%rbp)
	.loc	1 57 5 is_stmt 0        ## bdf_8x8.c:57:5
	jmp	LBB0_9
Ltmp23:
LBB0_14:                                ##   in Loop: Header=BB0_7 Depth=1
	.loc	1 65 27 is_stmt 1       ## bdf_8x8.c:65:27
	movq	-16(%rbp), %rdi
	.loc	1 65 31 is_stmt 0       ## bdf_8x8.c:65:31
	movl	-36(%rbp), %eax
	movb	%al, %cl
	.loc	1 65 10                 ## bdf_8x8.c:65:10
	movzbl	%cl, %esi
	callq	_bg_AddTargetData
	.loc	1 65 34                 ## bdf_8x8.c:65:34
	cmpl	$0, %eax
Ltmp24:
	.loc	1 65 10                 ## bdf_8x8.c:65:10
	jge	LBB0_16
## BB#15:
Ltmp25:
	.loc	1 66 7 is_stmt 1        ## bdf_8x8.c:66:7
	movl	$0, -4(%rbp)
	jmp	LBB0_19
Ltmp26:
LBB0_16:                                ##   in Loop: Header=BB0_7 Depth=1
	.loc	1 67 2                  ## bdf_8x8.c:67:2
	jmp	LBB0_17
Ltmp27:
LBB0_17:                                ##   in Loop: Header=BB0_7 Depth=1
	.loc	1 54 42                 ## bdf_8x8.c:54:42
	movl	-28(%rbp), %eax
	addl	$1, %eax
	movl	%eax, -28(%rbp)
	.loc	1 54 3 is_stmt 0        ## bdf_8x8.c:54:3
	jmp	LBB0_7
Ltmp28:
LBB0_18:
	.loc	1 69 3 is_stmt 1        ## bdf_8x8.c:69:3
	movl	$1, -4(%rbp)
LBB0_19:
	.loc	1 70 1                  ## bdf_8x8.c:70:1
	movl	-4(%rbp), %eax
	addq	$48, %rsp
	popq	%rbp
	retq
Ltmp29:
Lfunc_end0:
	.cfi_endproc
                                        ## -- End function
	.globl	_bf_Generate8x8Font     ## -- Begin function bf_Generate8x8Font
	.p2align	4, 0x90
_bf_Generate8x8Font:                    ## @bf_Generate8x8Font
Lfunc_begin1:
	.loc	1 74 0                  ## bdf_8x8.c:74:0
	.cfi_startproc
## BB#0:
	pushq	%rbp
Lcfi3:
	.cfi_def_cfa_offset 16
Lcfi4:
	.cfi_offset %rbp, -16
	movq	%rsp, %rbp
Lcfi5:
	.cfi_def_cfa_register %rbp
	subq	$96, %rsp
	movq	%rdi, -8(%rbp)
Ltmp30:
	.loc	1 83 10 prologue_end    ## bdf_8x8.c:83:10
	movl	$0, -12(%rbp)
LBB1_1:                                 ## =>This Inner Loop Header: Depth=1
Ltmp31:
	.loc	1 83 15 is_stmt 0       ## bdf_8x8.c:83:15
	movl	-12(%rbp), %eax
	.loc	1 83 19                 ## bdf_8x8.c:83:19
	movq	-8(%rbp), %rcx
	.loc	1 83 17                 ## bdf_8x8.c:83:17
	cmpl	16(%rcx), %eax
Ltmp32:
	.loc	1 83 3                  ## bdf_8x8.c:83:3
	jge	LBB1_14
## BB#2:                                ##   in Loop: Header=BB1_1 Depth=1
Ltmp33:
	.loc	1 85 10 is_stmt 1       ## bdf_8x8.c:85:10
	movq	-8(%rbp), %rax
	.loc	1 85 14 is_stmt 0       ## bdf_8x8.c:85:14
	movq	8(%rax), %rax
	.loc	1 85 10                 ## bdf_8x8.c:85:10
	movslq	-12(%rbp), %rcx
	movq	(%rax,%rcx,8), %rax
	.loc	1 85 8                  ## bdf_8x8.c:85:8
	movq	%rax, -32(%rbp)
Ltmp34:
	.loc	1 86 10 is_stmt 1       ## bdf_8x8.c:86:10
	movq	-32(%rbp), %rax
	.loc	1 86 21 is_stmt 0       ## bdf_8x8.c:86:21
	cmpq	$0, 16(%rax)
Ltmp35:
	.loc	1 86 10                 ## bdf_8x8.c:86:10
	jl	LBB1_12
## BB#3:                                ##   in Loop: Header=BB1_1 Depth=1
	.loc	1 0 10                  ## bdf_8x8.c:0:10
	leaq	-72(%rbp), %rsi
Ltmp36:
	.loc	1 88 36 is_stmt 1       ## bdf_8x8.c:88:36
	movq	-8(%rbp), %rdi
	.loc	1 88 52 is_stmt 0       ## bdf_8x8.c:88:52
	movq	-32(%rbp), %rdx
	.loc	1 88 7                  ## bdf_8x8.c:88:7
	callq	_bf_copy_bbx_and_update_shift
Ltmp37:
	.loc	1 90 24 is_stmt 1       ## bdf_8x8.c:90:24
	cmpq	$8, -72(%rbp)
Ltmp38:
	.loc	1 90 12 is_stmt 0       ## bdf_8x8.c:90:12
	je	LBB1_5
## BB#4:                                ##   in Loop: Header=BB1_1 Depth=1
	.loc	1 0 12                  ## bdf_8x8.c:0:12
	leaq	L_.str(%rip), %rsi
Ltmp39:
	.loc	1 92 9 is_stmt 1        ## bdf_8x8.c:92:9
	movq	-8(%rbp), %rdi
	.loc	1 92 94 is_stmt 0       ## bdf_8x8.c:92:94
	movq	-72(%rbp), %rdx
	.loc	1 92 97                 ## bdf_8x8.c:92:97
	movq	-32(%rbp), %rax
	.loc	1 92 101                ## bdf_8x8.c:92:101
	movq	8(%rax), %rcx
	.loc	1 92 2                  ## bdf_8x8.c:92:2
	movb	$0, %al
	callq	_bf_Log
	.loc	1 93 7 is_stmt 1        ## bdf_8x8.c:93:7
	jmp	LBB1_11
Ltmp40:
LBB1_5:                                 ##   in Loop: Header=BB1_1 Depth=1
	.loc	1 96 19                 ## bdf_8x8.c:96:19
	cmpq	$8, -64(%rbp)
Ltmp41:
	.loc	1 96 7 is_stmt 0        ## bdf_8x8.c:96:7
	je	LBB1_7
## BB#6:                                ##   in Loop: Header=BB1_1 Depth=1
	.loc	1 0 7                   ## bdf_8x8.c:0:7
	leaq	L_.str.1(%rip), %rsi
Ltmp42:
	.loc	1 98 11 is_stmt 1       ## bdf_8x8.c:98:11
	movq	-8(%rbp), %rdi
	.loc	1 98 98 is_stmt 0       ## bdf_8x8.c:98:98
	movq	-64(%rbp), %rdx
	.loc	1 98 101                ## bdf_8x8.c:98:101
	movq	-32(%rbp), %rax
	.loc	1 98 105                ## bdf_8x8.c:98:105
	movq	8(%rax), %rcx
	.loc	1 98 4                  ## bdf_8x8.c:98:4
	movb	$0, %al
	callq	_bf_Log
	.loc	1 99 2 is_stmt 1        ## bdf_8x8.c:99:2
	jmp	LBB1_10
Ltmp43:
LBB1_7:                                 ##   in Loop: Header=BB1_1 Depth=1
	.loc	1 0 2 is_stmt 0         ## bdf_8x8.c:0:2
	leaq	-72(%rbp), %rsi
Ltmp44:
	.loc	1 102 24 is_stmt 1      ## bdf_8x8.c:102:24
	movq	-32(%rbp), %rdi
	.loc	1 102 9 is_stmt 0       ## bdf_8x8.c:102:9
	callq	_bg_8x8_convert
	.loc	1 102 40                ## bdf_8x8.c:102:40
	cmpl	$0, %eax
Ltmp45:
	.loc	1 102 9                 ## bdf_8x8.c:102:9
	jne	LBB1_9
## BB#8:                                ##   in Loop: Header=BB1_1 Depth=1
	.loc	1 0 9                   ## bdf_8x8.c:0:9
	leaq	L_.str.2(%rip), %rsi
Ltmp46:
	.loc	1 104 13 is_stmt 1      ## bdf_8x8.c:104:13
	movq	-8(%rbp), %rdi
	.loc	1 104 72 is_stmt 0      ## bdf_8x8.c:104:72
	movq	-32(%rbp), %rax
	.loc	1 104 76                ## bdf_8x8.c:104:76
	movl	116(%rax), %edx
	.loc	1 104 88                ## bdf_8x8.c:104:88
	movq	-32(%rbp), %rax
	.loc	1 104 92                ## bdf_8x8.c:104:92
	movq	8(%rax), %rcx
	.loc	1 104 6                 ## bdf_8x8.c:104:6
	movb	$0, %al
	callq	_bf_Log
Ltmp47:
LBB1_9:                                 ##   in Loop: Header=BB1_1 Depth=1
	.loc	1 0 6                   ## bdf_8x8.c:0:6
	jmp	LBB1_10
LBB1_10:                                ##   in Loop: Header=BB1_1 Depth=1
	jmp	LBB1_11
LBB1_11:                                ##   in Loop: Header=BB1_1 Depth=1
	.loc	1 108 5 is_stmt 1       ## bdf_8x8.c:108:5
	jmp	LBB1_12
Ltmp48:
LBB1_12:                                ##   in Loop: Header=BB1_1 Depth=1
	.loc	1 109 3                 ## bdf_8x8.c:109:3
	jmp	LBB1_13
Ltmp49:
LBB1_13:                                ##   in Loop: Header=BB1_1 Depth=1
	.loc	1 83 35                 ## bdf_8x8.c:83:35
	movl	-12(%rbp), %eax
	addl	$1, %eax
	movl	%eax, -12(%rbp)
	.loc	1 83 3 is_stmt 0        ## bdf_8x8.c:83:3
	jmp	LBB1_1
Ltmp50:
LBB1_14:
	.loc	1 113 9 is_stmt 1       ## bdf_8x8.c:113:9
	movl	$-1, -36(%rbp)
	.loc	1 114 8                 ## bdf_8x8.c:114:8
	movl	$-1, -40(%rbp)
Ltmp51:
	.loc	1 116 10                ## bdf_8x8.c:116:10
	movl	$0, -16(%rbp)
LBB1_15:                                ## =>This Loop Header: Depth=1
                                        ##     Child Loop BB1_17 Depth 2
Ltmp52:
	.loc	1 116 17 is_stmt 0      ## bdf_8x8.c:116:17
	cmpl	$256, -16(%rbp)         ## imm = 0x100
Ltmp53:
	.loc	1 116 3                 ## bdf_8x8.c:116:3
	jge	LBB1_31
## BB#16:                               ##   in Loop: Header=BB1_15 Depth=1
Ltmp54:
	.loc	1 118 12 is_stmt 1      ## bdf_8x8.c:118:12
	movl	$0, -12(%rbp)
LBB1_17:                                ##   Parent Loop BB1_15 Depth=1
                                        ## =>  This Inner Loop Header: Depth=2
Ltmp55:
	.loc	1 118 17 is_stmt 0      ## bdf_8x8.c:118:17
	movl	-12(%rbp), %eax
	.loc	1 118 21                ## bdf_8x8.c:118:21
	movq	-8(%rbp), %rcx
	.loc	1 118 19                ## bdf_8x8.c:118:19
	cmpl	16(%rcx), %eax
Ltmp56:
	.loc	1 118 5                 ## bdf_8x8.c:118:5
	jge	LBB1_29
## BB#18:                               ##   in Loop: Header=BB1_17 Depth=2
Ltmp57:
	.loc	1 120 12 is_stmt 1      ## bdf_8x8.c:120:12
	movq	-8(%rbp), %rax
	.loc	1 120 16 is_stmt 0      ## bdf_8x8.c:120:16
	movq	8(%rax), %rax
	.loc	1 120 12                ## bdf_8x8.c:120:12
	movslq	-12(%rbp), %rcx
	movq	(%rax,%rcx,8), %rax
	.loc	1 120 10                ## bdf_8x8.c:120:10
	movq	%rax, -32(%rbp)
Ltmp58:
	.loc	1 121 12 is_stmt 1      ## bdf_8x8.c:121:12
	movq	-32(%rbp), %rax
	.loc	1 121 16 is_stmt 0      ## bdf_8x8.c:121:16
	movq	16(%rax), %rax
	.loc	1 121 26                ## bdf_8x8.c:121:26
	movslq	-16(%rbp), %rcx
	.loc	1 121 23                ## bdf_8x8.c:121:23
	cmpq	%rcx, %rax
Ltmp59:
	.loc	1 121 12                ## bdf_8x8.c:121:12
	jne	LBB1_27
## BB#19:                               ##   in Loop: Header=BB1_17 Depth=2
Ltmp60:
	.loc	1 123 7 is_stmt 1       ## bdf_8x8.c:123:7
	movq	-32(%rbp), %rax
	.loc	1 123 23 is_stmt 0      ## bdf_8x8.c:123:23
	cmpq	$0, 104(%rax)
Ltmp61:
	.loc	1 123 7                 ## bdf_8x8.c:123:7
	je	LBB1_26
## BB#20:                               ##   in Loop: Header=BB1_17 Depth=2
Ltmp62:
	.loc	1 126 9 is_stmt 1       ## bdf_8x8.c:126:9
	movq	-32(%rbp), %rax
	.loc	1 126 24 is_stmt 0      ## bdf_8x8.c:126:24
	cmpl	$8, 116(%rax)
Ltmp63:
	.loc	1 126 9                 ## bdf_8x8.c:126:9
	je	LBB1_22
## BB#21:                               ##   in Loop: Header=BB1_17 Depth=2
	.loc	1 0 9                   ## bdf_8x8.c:0:9
	leaq	L_.str.3(%rip), %rsi
Ltmp64:
	.loc	1 128 13 is_stmt 1      ## bdf_8x8.c:128:13
	movq	-8(%rbp), %rdi
	.loc	1 128 86 is_stmt 0      ## bdf_8x8.c:128:86
	movq	-32(%rbp), %rax
	.loc	1 128 90                ## bdf_8x8.c:128:90
	movl	116(%rax), %edx
	.loc	1 128 102               ## bdf_8x8.c:128:102
	movq	-32(%rbp), %rax
	.loc	1 128 106               ## bdf_8x8.c:128:106
	movq	8(%rax), %rcx
	.loc	1 128 6                 ## bdf_8x8.c:128:6
	movb	$0, %al
	callq	_bf_Log
	.loc	1 129 4 is_stmt 1       ## bdf_8x8.c:129:4
	jmp	LBB1_25
Ltmp65:
LBB1_22:                                ##   in Loop: Header=BB1_17 Depth=2
	.loc	1 132 17                ## bdf_8x8.c:132:17
	cmpl	$0, -36(%rbp)
Ltmp66:
	.loc	1 132 11 is_stmt 0      ## bdf_8x8.c:132:11
	jge	LBB1_24
## BB#23:                               ##   in Loop: Header=BB1_17 Depth=2
Ltmp67:
	.loc	1 133 16 is_stmt 1      ## bdf_8x8.c:133:16
	movl	-16(%rbp), %eax
	.loc	1 133 14 is_stmt 0      ## bdf_8x8.c:133:14
	movl	%eax, -36(%rbp)
Ltmp68:
LBB1_24:                                ##   in Loop: Header=BB1_17 Depth=2
	.loc	1 134 13 is_stmt 1      ## bdf_8x8.c:134:13
	movl	-16(%rbp), %eax
	.loc	1 134 11 is_stmt 0      ## bdf_8x8.c:134:11
	movl	%eax, -40(%rbp)
Ltmp69:
LBB1_25:                                ##   in Loop: Header=BB1_17 Depth=2
	.loc	1 136 2 is_stmt 1       ## bdf_8x8.c:136:2
	jmp	LBB1_26
Ltmp70:
LBB1_26:                                ##   in Loop: Header=BB1_17 Depth=2
	.loc	1 137 7                 ## bdf_8x8.c:137:7
	jmp	LBB1_27
Ltmp71:
LBB1_27:                                ##   in Loop: Header=BB1_17 Depth=2
	.loc	1 138 5                 ## bdf_8x8.c:138:5
	jmp	LBB1_28
Ltmp72:
LBB1_28:                                ##   in Loop: Header=BB1_17 Depth=2
	.loc	1 118 37                ## bdf_8x8.c:118:37
	movl	-12(%rbp), %eax
	addl	$1, %eax
	movl	%eax, -12(%rbp)
	.loc	1 118 5 is_stmt 0       ## bdf_8x8.c:118:5
	jmp	LBB1_17
Ltmp73:
LBB1_29:                                ##   in Loop: Header=BB1_15 Depth=1
	.loc	1 139 3 is_stmt 1       ## bdf_8x8.c:139:3
	jmp	LBB1_30
Ltmp74:
LBB1_30:                                ##   in Loop: Header=BB1_15 Depth=1
	.loc	1 116 25                ## bdf_8x8.c:116:25
	movl	-16(%rbp), %eax
	addl	$1, %eax
	movl	%eax, -16(%rbp)
	.loc	1 116 3 is_stmt 0       ## bdf_8x8.c:116:3
	jmp	LBB1_15
Ltmp75:
LBB1_31:
	.loc	1 143 20 is_stmt 1      ## bdf_8x8.c:143:20
	movq	-8(%rbp), %rdi
	.loc	1 143 24 is_stmt 0      ## bdf_8x8.c:143:24
	movl	-36(%rbp), %eax
	movb	%al, %cl
	.loc	1 143 3                 ## bdf_8x8.c:143:3
	movzbl	%cl, %esi
	callq	_bf_AddTargetData
	.loc	1 144 20 is_stmt 1      ## bdf_8x8.c:144:20
	movq	-8(%rbp), %rdi
	.loc	1 144 24 is_stmt 0      ## bdf_8x8.c:144:24
	movl	-40(%rbp), %esi
	movb	%sil, %cl
	.loc	1 144 3                 ## bdf_8x8.c:144:3
	movzbl	%cl, %esi
	movl	%eax, -80(%rbp)         ## 4-byte Spill
	callq	_bf_AddTargetData
Ltmp76:
	.loc	1 147 12 is_stmt 1      ## bdf_8x8.c:147:12
	movl	-36(%rbp), %esi
	.loc	1 147 10 is_stmt 0      ## bdf_8x8.c:147:10
	movl	%esi, -16(%rbp)
	movl	%eax, -84(%rbp)         ## 4-byte Spill
LBB1_32:                                ## =>This Loop Header: Depth=1
                                        ##     Child Loop BB1_34 Depth 2
                                        ##       Child Loop BB1_39 Depth 3
                                        ##     Child Loop BB1_49 Depth 2
Ltmp77:
	.loc	1 147 19                ## bdf_8x8.c:147:19
	movl	-16(%rbp), %eax
	.loc	1 147 21                ## bdf_8x8.c:147:21
	cmpl	-40(%rbp), %eax
Ltmp78:
	.loc	1 147 3                 ## bdf_8x8.c:147:3
	jg	LBB1_55
## BB#33:                               ##   in Loop: Header=BB1_32 Depth=1
Ltmp79:
	.loc	1 149 22 is_stmt 1      ## bdf_8x8.c:149:22
	movl	$0, -76(%rbp)
Ltmp80:
	.loc	1 150 12                ## bdf_8x8.c:150:12
	movl	$0, -12(%rbp)
LBB1_34:                                ##   Parent Loop BB1_32 Depth=1
                                        ## =>  This Loop Header: Depth=2
                                        ##       Child Loop BB1_39 Depth 3
Ltmp81:
	.loc	1 150 17 is_stmt 0      ## bdf_8x8.c:150:17
	movl	-12(%rbp), %eax
	.loc	1 150 21                ## bdf_8x8.c:150:21
	movq	-8(%rbp), %rcx
	.loc	1 150 19                ## bdf_8x8.c:150:19
	cmpl	16(%rcx), %eax
Ltmp82:
	.loc	1 150 5                 ## bdf_8x8.c:150:5
	jge	LBB1_47
## BB#35:                               ##   in Loop: Header=BB1_34 Depth=2
Ltmp83:
	.loc	1 152 12 is_stmt 1      ## bdf_8x8.c:152:12
	movq	-8(%rbp), %rax
	.loc	1 152 16 is_stmt 0      ## bdf_8x8.c:152:16
	movq	8(%rax), %rax
	.loc	1 152 12                ## bdf_8x8.c:152:12
	movslq	-12(%rbp), %rcx
	movq	(%rax,%rcx,8), %rax
	.loc	1 152 10                ## bdf_8x8.c:152:10
	movq	%rax, -32(%rbp)
Ltmp84:
	.loc	1 153 12 is_stmt 1      ## bdf_8x8.c:153:12
	movq	-32(%rbp), %rax
	.loc	1 153 16 is_stmt 0      ## bdf_8x8.c:153:16
	movq	16(%rax), %rax
	.loc	1 153 26                ## bdf_8x8.c:153:26
	movslq	-16(%rbp), %rcx
	.loc	1 153 23                ## bdf_8x8.c:153:23
	cmpq	%rcx, %rax
Ltmp85:
	.loc	1 153 12                ## bdf_8x8.c:153:12
	jne	LBB1_45
## BB#36:                               ##   in Loop: Header=BB1_34 Depth=2
Ltmp86:
	.loc	1 155 7 is_stmt 1       ## bdf_8x8.c:155:7
	movq	-32(%rbp), %rax
	.loc	1 155 23 is_stmt 0      ## bdf_8x8.c:155:23
	cmpq	$0, 104(%rax)
Ltmp87:
	.loc	1 155 7                 ## bdf_8x8.c:155:7
	je	LBB1_44
## BB#37:                               ##   in Loop: Header=BB1_34 Depth=2
Ltmp88:
	.loc	1 158 9 is_stmt 1       ## bdf_8x8.c:158:9
	movq	-32(%rbp), %rax
	.loc	1 158 24 is_stmt 0      ## bdf_8x8.c:158:24
	cmpl	$8, 116(%rax)
Ltmp89:
	.loc	1 158 9                 ## bdf_8x8.c:158:9
	jne	LBB1_43
## BB#38:                               ##   in Loop: Header=BB1_34 Depth=2
Ltmp90:
	.loc	1 160 13 is_stmt 1      ## bdf_8x8.c:160:13
	movl	$0, -20(%rbp)
LBB1_39:                                ##   Parent Loop BB1_32 Depth=1
                                        ##     Parent Loop BB1_34 Depth=2
                                        ## =>    This Inner Loop Header: Depth=3
Ltmp91:
	.loc	1 160 18 is_stmt 0      ## bdf_8x8.c:160:18
	movl	-20(%rbp), %eax
	.loc	1 160 22                ## bdf_8x8.c:160:22
	movq	-32(%rbp), %rcx
	.loc	1 160 20                ## bdf_8x8.c:160:20
	cmpl	116(%rcx), %eax
Ltmp92:
	.loc	1 160 6                 ## bdf_8x8.c:160:6
	jge	LBB1_42
## BB#40:                               ##   in Loop: Header=BB1_39 Depth=3
Ltmp93:
	.loc	1 162 25 is_stmt 1      ## bdf_8x8.c:162:25
	movq	-8(%rbp), %rdi
	.loc	1 162 29 is_stmt 0      ## bdf_8x8.c:162:29
	movq	-32(%rbp), %rax
	.loc	1 162 33                ## bdf_8x8.c:162:33
	movq	104(%rax), %rax
	.loc	1 162 29                ## bdf_8x8.c:162:29
	movslq	-20(%rbp), %rcx
	.loc	1 162 8                 ## bdf_8x8.c:162:8
	movzbl	(%rax,%rcx), %esi
	callq	_bf_AddTargetData
	movl	%eax, -88(%rbp)         ## 4-byte Spill
Ltmp94:
## BB#41:                               ##   in Loop: Header=BB1_39 Depth=3
	.loc	1 160 39 is_stmt 1      ## bdf_8x8.c:160:39
	movl	-20(%rbp), %eax
	addl	$1, %eax
	movl	%eax, -20(%rbp)
	.loc	1 160 6 is_stmt 0       ## bdf_8x8.c:160:6
	jmp	LBB1_39
Ltmp95:
LBB1_42:                                ##   in Loop: Header=BB1_34 Depth=2
	.loc	1 164 23 is_stmt 1      ## bdf_8x8.c:164:23
	movl	$1, -76(%rbp)
Ltmp96:
LBB1_43:                                ##   in Loop: Header=BB1_34 Depth=2
	.loc	1 166 2                 ## bdf_8x8.c:166:2
	jmp	LBB1_44
Ltmp97:
LBB1_44:                                ##   in Loop: Header=BB1_34 Depth=2
	.loc	1 167 7                 ## bdf_8x8.c:167:7
	jmp	LBB1_45
Ltmp98:
LBB1_45:                                ##   in Loop: Header=BB1_34 Depth=2
	.loc	1 168 5                 ## bdf_8x8.c:168:5
	jmp	LBB1_46
Ltmp99:
LBB1_46:                                ##   in Loop: Header=BB1_34 Depth=2
	.loc	1 150 37                ## bdf_8x8.c:150:37
	movl	-12(%rbp), %eax
	addl	$1, %eax
	movl	%eax, -12(%rbp)
	.loc	1 150 5 is_stmt 0       ## bdf_8x8.c:150:5
	jmp	LBB1_34
Ltmp100:
LBB1_47:                                ##   in Loop: Header=BB1_32 Depth=1
	.loc	1 169 28 is_stmt 1      ## bdf_8x8.c:169:28
	cmpl	$0, -76(%rbp)
Ltmp101:
	.loc	1 169 11 is_stmt 0      ## bdf_8x8.c:169:11
	jne	LBB1_53
## BB#48:                               ##   in Loop: Header=BB1_32 Depth=1
Ltmp102:
	.loc	1 171 14 is_stmt 1      ## bdf_8x8.c:171:14
	movl	$0, -20(%rbp)
LBB1_49:                                ##   Parent Loop BB1_32 Depth=1
                                        ## =>  This Inner Loop Header: Depth=2
Ltmp103:
	.loc	1 171 21 is_stmt 0      ## bdf_8x8.c:171:21
	cmpl	$8, -20(%rbp)
Ltmp104:
	.loc	1 171 7                 ## bdf_8x8.c:171:7
	jge	LBB1_52
## BB#50:                               ##   in Loop: Header=BB1_49 Depth=2
	.loc	1 0 7                   ## bdf_8x8.c:0:7
	xorl	%esi, %esi
Ltmp105:
	.loc	1 173 19 is_stmt 1      ## bdf_8x8.c:173:19
	movq	-8(%rbp), %rdi
	.loc	1 173 2 is_stmt 0       ## bdf_8x8.c:173:2
	callq	_bf_AddTargetData
	movl	%eax, -92(%rbp)         ## 4-byte Spill
Ltmp106:
## BB#51:                               ##   in Loop: Header=BB1_49 Depth=2
	.loc	1 171 27 is_stmt 1      ## bdf_8x8.c:171:27
	movl	-20(%rbp), %eax
	addl	$1, %eax
	movl	%eax, -20(%rbp)
	.loc	1 171 7 is_stmt 0       ## bdf_8x8.c:171:7
	jmp	LBB1_49
Ltmp107:
LBB1_52:                                ##   in Loop: Header=BB1_32 Depth=1
	.loc	1 175 5 is_stmt 1       ## bdf_8x8.c:175:5
	jmp	LBB1_53
Ltmp108:
LBB1_53:                                ##   in Loop: Header=BB1_32 Depth=1
	.loc	1 177 3                 ## bdf_8x8.c:177:3
	jmp	LBB1_54
Ltmp109:
LBB1_54:                                ##   in Loop: Header=BB1_32 Depth=1
	.loc	1 147 31                ## bdf_8x8.c:147:31
	movl	-16(%rbp), %eax
	addl	$1, %eax
	movl	%eax, -16(%rbp)
	.loc	1 147 3 is_stmt 0       ## bdf_8x8.c:147:3
	jmp	LBB1_32
Ltmp110:
LBB1_55:
	.loc	1 0 3                   ## bdf_8x8.c:0:3
	leaq	L_.str.4(%rip), %rsi
	.loc	1 179 10 is_stmt 1      ## bdf_8x8.c:179:10
	movq	-8(%rbp), %rdi
	.loc	1 179 47 is_stmt 0      ## bdf_8x8.c:179:47
	movq	-8(%rbp), %rax
	.loc	1 179 51                ## bdf_8x8.c:179:51
	movl	1300(%rax), %edx
	.loc	1 179 3                 ## bdf_8x8.c:179:3
	movb	$0, %al
	callq	_bf_Log
	.loc	1 180 1 is_stmt 1       ## bdf_8x8.c:180:1
	addq	$96, %rsp
	popq	%rbp
	retq
Ltmp111:
Lfunc_end1:
	.cfi_endproc
                                        ## -- End function
	.section	__TEXT,__cstring,cstring_literals
L_.str:                                 ## @.str
	.asciz	"Generate8x8Font: Error, glyph width is not 8, width=%d, encoding=%d"

L_.str.1:                               ## @.str.1
	.asciz	"Generate8x8Font: Error, glyph height is not 8, height=%d, encoding=%d"

L_.str.2:                               ## @.str.2
	.asciz	"Generate8x8Font: Error, 8x8 conversion, encoding=%d"

L_.str.3:                               ## @.str.3
	.asciz	"Generate8x8Font: Error, glyph size is not 8, size=%d, encoding=%d"

L_.str.4:                               ## @.str.4
	.asciz	"Generate8x8Font: Font size %d"

	.file	2 "." "bdf_font.h"
	.file	3 "/usr/include" "_stdio.h"
	.file	4 "/usr/include/i386" "_types.h"
	.file	5 "/usr/include/sys" "_types.h"
	.file	6 "." "bdf_glyph.h"
	.file	7 "/usr/include/_types" "_uint8_t.h"