	.section	__TEXT,__text,regular,pure_instructions
	.macosx_version_min 10, 13
	.file	1 "bdf_parser.c"
	.globl	_bf_ParseFile           ## -- Begin function bf_ParseFile
	.p2align	4, 0x90
_bf_ParseFile:                          ## @bf_ParseFile
Lfunc_begin0:
	.loc	1 462 0                 ## bdf_parser.c:462:0
	.cfi_startproc
## BB#0:
	pushq	%rbp
Lcfi0:
	.cfi_def_cfa_offset 16
Lcfi1:
	.cfi_offset %rbp, -16
	movq	%rsp, %rbp
Lcfi2:
	.cfi_def_cfa_register %rbp
	subq	$32, %rsp
	leaq	L_.str(%rip), %rax
	movq	%rdi, -16(%rbp)
	movq	%rsi, -24(%rbp)
Ltmp0:
	.loc	1 464 18 prologue_end   ## bdf_parser.c:464:18
	movq	-24(%rbp), %rdi
	.loc	1 464 12 is_stmt 0      ## bdf_parser.c:464:12
	movq	%rax, %rsi
	callq	_fopen
	.loc	1 464 3                 ## bdf_parser.c:464:3
	movq	-16(%rbp), %rsi
	.loc	1 464 10                ## bdf_parser.c:464:10
	movq	%rax, 1128(%rsi)
Ltmp1:
	.loc	1 465 8 is_stmt 1       ## bdf_parser.c:465:8
	movq	-16(%rbp), %rax
	.loc	1 465 15 is_stmt 0      ## bdf_parser.c:465:15
	cmpq	$0, 1128(%rax)
Ltmp2:
	.loc	1 465 8                 ## bdf_parser.c:465:8
	jne	LBB0_2
## BB#1:
	.loc	1 0 8                   ## bdf_parser.c:0:8
	leaq	L_.str.1(%rip), %rsi
Ltmp3:
	.loc	1 467 14 is_stmt 1      ## bdf_parser.c:467:14
	movq	-16(%rbp), %rdi
	.loc	1 467 48 is_stmt 0      ## bdf_parser.c:467:48
	movq	-24(%rbp), %rdx
	.loc	1 467 5                 ## bdf_parser.c:467:5
	movb	$0, %al
	callq	_bf_Error
	.loc	1 468 5 is_stmt 1       ## bdf_parser.c:468:5
	movl	$0, -4(%rbp)
	jmp	LBB0_3
Ltmp4:
LBB0_2:
	.loc	1 470 21                ## bdf_parser.c:470:21
	movq	-16(%rbp), %rdi
	.loc	1 470 7 is_stmt 0       ## bdf_parser.c:470:7
	callq	_bf_parse_file
	.loc	1 470 5                 ## bdf_parser.c:470:5
	movl	%eax, -28(%rbp)
	.loc	1 471 10 is_stmt 1      ## bdf_parser.c:471:10
	movq	-16(%rbp), %rdi
	.loc	1 471 14 is_stmt 0      ## bdf_parser.c:471:14
	movq	1128(%rdi), %rdi
	.loc	1 471 3                 ## bdf_parser.c:471:3
	callq	_fclose
	leaq	L_.str.2(%rip), %rsi
	.loc	1 472 10 is_stmt 1      ## bdf_parser.c:472:10
	movq	-16(%rbp), %rdi
	.loc	1 472 50 is_stmt 0      ## bdf_parser.c:472:50
	movq	-24(%rbp), %rdx
	.loc	1 472 56                ## bdf_parser.c:472:56
	movq	-16(%rbp), %rcx
	.loc	1 472 60                ## bdf_parser.c:472:60
	movl	16(%rcx), %ecx
	.loc	1 472 3                 ## bdf_parser.c:472:3
	movl	%eax, -32(%rbp)         ## 4-byte Spill
	movb	$0, %al
	callq	_bf_Log
	.loc	1 473 10 is_stmt 1      ## bdf_parser.c:473:10
	movl	-28(%rbp), %ecx
	.loc	1 473 3 is_stmt 0       ## bdf_parser.c:473:3
	movl	%ecx, -4(%rbp)
LBB0_3:
	.loc	1 474 1 is_stmt 1       ## bdf_parser.c:474:1
	movl	-4(%rbp), %eax
	addq	$32, %rsp
	popq	%rbp
	retq
Ltmp5:
Lfunc_end0:
	.cfi_endproc
                                        ## -- End function
	.p2align	4, 0x90         ## -- Begin function bf_parse_file
_bf_parse_file:                         ## @bf_parse_file
Lfunc_begin1:
	.loc	1 444 0                 ## bdf_parser.c:444:0
	.cfi_startproc
## BB#0:
	pushq	%rbp
Lcfi3:
	.cfi_def_cfa_offset 16
Lcfi4:
	.cfi_offset %rbp, -16
	movq	%rsp, %rbp
Lcfi5:
	.cfi_def_cfa_register %rbp
	subq	$32, %rsp
	movq	%rdi, -16(%rbp)
Ltmp6:
	.loc	1 445 8 prologue_end    ## bdf_parser.c:445:8
	movq	$0, -24(%rbp)
	.loc	1 446 3                 ## bdf_parser.c:446:3
	movq	-16(%rbp), %rdi
	.loc	1 446 25 is_stmt 0      ## bdf_parser.c:446:25
	movl	$0, 1052(%rdi)
LBB1_1:                                 ## =>This Inner Loop Header: Depth=1
	.loc	1 0 25                  ## bdf_parser.c:0:25
	movl	$1024, %esi             ## imm = 0x400
Ltmp7:
	.loc	1 449 13 is_stmt 1      ## bdf_parser.c:449:13
	movq	-24(%rbp), %rax
	addq	$1, %rax
	movq	%rax, -24(%rbp)
Ltmp8:
	.loc	1 450 16                ## bdf_parser.c:450:16
	movq	-16(%rbp), %rax
	.loc	1 450 20 is_stmt 0      ## bdf_parser.c:450:20
	addq	$24, %rax
	.loc	1 450 44                ## bdf_parser.c:450:44
	movq	-16(%rbp), %rcx
	.loc	1 450 48                ## bdf_parser.c:450:48
	movq	1128(%rcx), %rdx
	.loc	1 450 10                ## bdf_parser.c:450:10
	movq	%rax, %rdi
	callq	_fgets
	.loc	1 450 52                ## bdf_parser.c:450:52
	cmpq	$0, %rax
Ltmp9:
	.loc	1 450 10                ## bdf_parser.c:450:10
	jne	LBB1_3
## BB#2:
Ltmp10:
	.loc	1 451 7 is_stmt 1       ## bdf_parser.c:451:7
	jmp	LBB1_6
Ltmp11:
LBB1_3:                                 ##   in Loop: Header=BB1_1 Depth=1
	.loc	1 452 24                ## bdf_parser.c:452:24
	movq	-16(%rbp), %rdi
	.loc	1 452 10 is_stmt 0      ## bdf_parser.c:452:10
	callq	_bf_parse_line
	.loc	1 452 28                ## bdf_parser.c:452:28
	cmpl	$0, %eax
Ltmp12:
	.loc	1 452 10                ## bdf_parser.c:452:10
	jne	LBB1_5
## BB#4:
	.loc	1 0 10                  ## bdf_parser.c:0:10
	leaq	L_.str.3(%rip), %rsi
Ltmp13:
	.loc	1 454 16 is_stmt 1      ## bdf_parser.c:454:16
	movq	-16(%rbp), %rdi
	.loc	1 454 47 is_stmt 0      ## bdf_parser.c:454:47
	movq	-24(%rbp), %rdx
	.loc	1 454 7                 ## bdf_parser.c:454:7
	movb	$0, %al
	callq	_bf_Error
	.loc	1 455 7 is_stmt 1       ## bdf_parser.c:455:7
	movl	$0, -4(%rbp)
	jmp	LBB1_7
Ltmp14:
LBB1_5:                                 ##   in Loop: Header=BB1_1 Depth=1
	.loc	1 447 3                 ## bdf_parser.c:447:3
	jmp	LBB1_1
Ltmp15:
LBB1_6:
	.loc	1 458 3                 ## bdf_parser.c:458:3
	movl	$1, -4(%rbp)
LBB1_7:
	.loc	1 459 1                 ## bdf_parser.c:459:1
	movl	-4(%rbp), %eax
	addq	$32, %rsp
	popq	%rbp
	retq
Ltmp16:
Lfunc_end1:
	.cfi_endproc
                                        ## -- End function
	.p2align	4, 0x90         ## -- Begin function bf_parse_line
_bf_parse_line:                         ## @bf_parse_line
Lfunc_begin2:
	.loc	1 252 0                 ## bdf_parser.c:252:0
	.cfi_startproc
## BB#0:
	pushq	%rbp
Lcfi6:
	.cfi_def_cfa_offset 16
Lcfi7:
	.cfi_offset %rbp, -16
	movq	%rsp, %rbp
Lcfi8:
	.cfi_def_cfa_register %rbp
	subq	$48, %rsp
	movq	%rdi, -16(%rbp)
Ltmp17:
	.loc	1 255 3 prologue_end    ## bdf_parser.c:255:3
	movq	-16(%rbp), %rdi
	.loc	1 255 16 is_stmt 0      ## bdf_parser.c:255:16
	movl	$0, 1048(%rdi)
	.loc	1 256 16 is_stmt 1      ## bdf_parser.c:256:16
	movq	-16(%rbp), %rdi
	.loc	1 256 3 is_stmt 0       ## bdf_parser.c:256:3
	callq	_bf_skipspace
Ltmp18:
	.loc	1 258 8 is_stmt 1       ## bdf_parser.c:258:8
	movq	-16(%rbp), %rdi
	.loc	1 258 30 is_stmt 0      ## bdf_parser.c:258:30
	cmpl	$0, 1052(%rdi)
Ltmp19:
	.loc	1 258 8                 ## bdf_parser.c:258:8
	jne	LBB2_127
## BB#1:
Ltmp20:
	.loc	1 261 5 is_stmt 1       ## bdf_parser.c:261:5
	movq	-16(%rbp), %rax
	.loc	1 261 18 is_stmt 0      ## bdf_parser.c:261:18
	movl	$0, 1116(%rax)
	.loc	1 262 5 is_stmt 1       ## bdf_parser.c:262:5
	movq	-16(%rbp), %rdi
	callq	_bf_get_string
	leaq	_bf_parse_line.cmd(%rip), %rdi
	movl	$1024, %ecx             ## imm = 0x400
	movl	%ecx, %edx
	movq	%rax, %rsi
	callq	___strcpy_chk
Ltmp21:
	.loc	1 264 10                ## bdf_parser.c:264:10
	leaq	_bf_parse_line.cmd(%rip), %rdi
	leaq	L_.str.4(%rip), %rsi
	movq	%rax, -32(%rbp)         ## 8-byte Spill
	callq	_strcmp
	.loc	1 264 27 is_stmt 0      ## bdf_parser.c:264:27
	cmpl	$0, %eax
Ltmp22:
	.loc	1 264 10                ## bdf_parser.c:264:10
	jne	LBB2_3
## BB#2:
Ltmp23:
	.loc	1 266 7 is_stmt 1       ## bdf_parser.c:266:7
	movl	$1, -4(%rbp)
	jmp	LBB2_138
Ltmp24:
LBB2_3:
	.loc	1 268 15                ## bdf_parser.c:268:15
	leaq	_bf_parse_line.cmd(%rip), %rdi
	leaq	L_.str.5(%rip), %rsi
	callq	_strcmp
	.loc	1 268 41 is_stmt 0      ## bdf_parser.c:268:41
	cmpl	$0, %eax
Ltmp25:
	.loc	1 268 15                ## bdf_parser.c:268:15
	jne	LBB2_5
## BB#4:
Ltmp26:
	.loc	1 270 5 is_stmt 1       ## bdf_parser.c:270:5
	jmp	LBB2_125
Ltmp27:
LBB2_5:
	.loc	1 271 15                ## bdf_parser.c:271:15
	leaq	_bf_parse_line.cmd(%rip), %rdi
	leaq	L_.str.6(%rip), %rsi
	callq	_strcmp
	.loc	1 271 36 is_stmt 0      ## bdf_parser.c:271:36
	cmpl	$0, %eax
Ltmp28:
	.loc	1 271 15                ## bdf_parser.c:271:15
	jne	LBB2_9
## BB#6:
Ltmp29:
	.loc	1 273 12 is_stmt 1      ## bdf_parser.c:273:12
	movq	-16(%rbp), %rax
	.loc	1 273 25 is_stmt 0      ## bdf_parser.c:273:25
	cmpq	$0, 1136(%rax)
Ltmp30:
	.loc	1 273 12                ## bdf_parser.c:273:12
	je	LBB2_8
## BB#7:
Ltmp31:
	.loc	1 274 7 is_stmt 1       ## bdf_parser.c:274:7
	movq	-16(%rbp), %rax
	.loc	1 274 11 is_stmt 0      ## bdf_parser.c:274:11
	movq	1136(%rax), %rdi
	.loc	1 274 2                 ## bdf_parser.c:274:2
	callq	_free
Ltmp32:
LBB2_8:
	.loc	1 275 47 is_stmt 1      ## bdf_parser.c:275:47
	movq	-16(%rbp), %rdi
	.loc	1 275 29 is_stmt 0      ## bdf_parser.c:275:29
	callq	_bf_get_eol_string
	.loc	1 275 22                ## bdf_parser.c:275:22
	movq	%rax, %rdi
	callq	_strdup
	.loc	1 275 7                 ## bdf_parser.c:275:7
	movq	-16(%rbp), %rdi
	.loc	1 275 20                ## bdf_parser.c:275:20
	movq	%rax, 1136(%rdi)
	.loc	1 276 5 is_stmt 1       ## bdf_parser.c:276:5
	jmp	LBB2_124
Ltmp33:
LBB2_9:
	.loc	1 277 15                ## bdf_parser.c:277:15
	leaq	_bf_parse_line.cmd(%rip), %rdi
	leaq	L_.str.7(%rip), %rsi
	callq	_strcmp
	.loc	1 277 36 is_stmt 0      ## bdf_parser.c:277:36
	cmpl	$0, %eax
Ltmp34:
	.loc	1 277 15                ## bdf_parser.c:277:15
	jne	LBB2_11
## BB#10:
Ltmp35:
	.loc	1 279 5 is_stmt 1       ## bdf_parser.c:279:5
	jmp	LBB2_123
Ltmp36:
LBB2_11:
	.loc	1 280 15                ## bdf_parser.c:280:15
	leaq	_bf_parse_line.cmd(%rip), %rdi
	leaq	L_.str.8(%rip), %rsi
	callq	_strcmp
	.loc	1 280 47 is_stmt 0      ## bdf_parser.c:280:47
	cmpl	$0, %eax
Ltmp37:
	.loc	1 280 15                ## bdf_parser.c:280:15
	jne	LBB2_13
## BB#12:
Ltmp38:
	.loc	1 282 5 is_stmt 1       ## bdf_parser.c:282:5
	jmp	LBB2_122
Ltmp39:
LBB2_13:
	.loc	1 283 15                ## bdf_parser.c:283:15
	leaq	_bf_parse_line.cmd(%rip), %rdi
	leaq	L_.str.9(%rip), %rsi
	callq	_strcmp
	.loc	1 283 47 is_stmt 0      ## bdf_parser.c:283:47
	cmpl	$0, %eax
Ltmp40:
	.loc	1 283 15                ## bdf_parser.c:283:15
	jne	LBB2_15
## BB#14:
Ltmp41:
	.loc	1 285 5 is_stmt 1       ## bdf_parser.c:285:5
	jmp	LBB2_121
Ltmp42:
LBB2_15:
	.loc	1 286 15                ## bdf_parser.c:286:15
	leaq	_bf_parse_line.cmd(%rip), %rdi
	leaq	L_.str.10(%rip), %rsi
	callq	_strcmp
	.loc	1 286 49 is_stmt 0      ## bdf_parser.c:286:49
	cmpl	$0, %eax
Ltmp43:
	.loc	1 286 15                ## bdf_parser.c:286:15
	jne	LBB2_17
## BB#16:
Ltmp44:
	.loc	1 288 5 is_stmt 1       ## bdf_parser.c:288:5
	jmp	LBB2_120
Ltmp45:
LBB2_17:
	.loc	1 289 15                ## bdf_parser.c:289:15
	leaq	_bf_parse_line.cmd(%rip), %rdi
	leaq	L_.str.11(%rip), %rsi
	callq	_strcmp
	.loc	1 289 39 is_stmt 0      ## bdf_parser.c:289:39
	cmpl	$0, %eax
Ltmp46:
	.loc	1 289 15                ## bdf_parser.c:289:15
	jne	LBB2_19
## BB#18:
Ltmp47:
	.loc	1 291 5 is_stmt 1       ## bdf_parser.c:291:5
	jmp	LBB2_119
Ltmp48:
LBB2_19:
	.loc	1 292 15                ## bdf_parser.c:292:15
	leaq	_bf_parse_line.cmd(%rip), %rdi
	leaq	L_.str.12(%rip), %rsi
	callq	_strcmp
	.loc	1 292 43 is_stmt 0      ## bdf_parser.c:292:43
	cmpl	$0, %eax
Ltmp49:
	.loc	1 292 15                ## bdf_parser.c:292:15
	jne	LBB2_21
## BB#20:
Ltmp50:
	.loc	1 294 5 is_stmt 1       ## bdf_parser.c:294:5
	jmp	LBB2_118
Ltmp51:
LBB2_21:
	.loc	1 295 15                ## bdf_parser.c:295:15
	leaq	_bf_parse_line.cmd(%rip), %rdi
	leaq	L_.str.13(%rip), %rsi
	callq	_strcmp
	.loc	1 295 43 is_stmt 0      ## bdf_parser.c:295:43
	cmpl	$0, %eax
Ltmp52:
	.loc	1 295 15                ## bdf_parser.c:295:15
	jne	LBB2_23
## BB#22:
Ltmp53:
	.loc	1 297 5 is_stmt 1       ## bdf_parser.c:297:5
	jmp	LBB2_117
Ltmp54:
LBB2_23:
	.loc	1 298 15                ## bdf_parser.c:298:15
	leaq	_bf_parse_line.cmd(%rip), %rdi
	leaq	L_.str.14(%rip), %rsi
	callq	_strcmp
	.loc	1 298 37 is_stmt 0      ## bdf_parser.c:298:37
	cmpl	$0, %eax
Ltmp55:
	.loc	1 298 15                ## bdf_parser.c:298:15
	jne	LBB2_25
## BB#24:
Ltmp56:
	.loc	1 300 5 is_stmt 1       ## bdf_parser.c:300:5
	jmp	LBB2_116
Ltmp57:
LBB2_25:
	.loc	1 301 15                ## bdf_parser.c:301:15
	leaq	_bf_parse_line.cmd(%rip), %rdi
	leaq	L_.str.15(%rip), %rsi
	callq	_strcmp
	.loc	1 301 45 is_stmt 0      ## bdf_parser.c:301:45
	cmpl	$0, %eax
Ltmp58:
	.loc	1 301 15                ## bdf_parser.c:301:15
	jne	LBB2_27
## BB#26:
Ltmp59:
	.loc	1 303 5 is_stmt 1       ## bdf_parser.c:303:5
	jmp	LBB2_115
Ltmp60:
LBB2_27:
	.loc	1 304 15                ## bdf_parser.c:304:15
	leaq	_bf_parse_line.cmd(%rip), %rdi
	leaq	L_.str.16(%rip), %rsi
	callq	_strcmp
	.loc	1 304 46 is_stmt 0      ## bdf_parser.c:304:46
	cmpl	$0, %eax
Ltmp61:
	.loc	1 304 15                ## bdf_parser.c:304:15
	jne	LBB2_29
## BB#28:
Ltmp62:
	.loc	1 306 5 is_stmt 1       ## bdf_parser.c:306:5
	jmp	LBB2_114
Ltmp63:
LBB2_29:
	.loc	1 307 15                ## bdf_parser.c:307:15
	leaq	_bf_parse_line.cmd(%rip), %rdi
	leaq	L_.str.17(%rip), %rsi
	callq	_strcmp
	.loc	1 307 42 is_stmt 0      ## bdf_parser.c:307:42
	cmpl	$0, %eax
Ltmp64:
	.loc	1 307 15                ## bdf_parser.c:307:15
	jne	LBB2_31
## BB#30:
Ltmp65:
	.loc	1 309 5 is_stmt 1       ## bdf_parser.c:309:5
	jmp	LBB2_113
Ltmp66:
LBB2_31:
	.loc	1 310 15                ## bdf_parser.c:310:15
	leaq	_bf_parse_line.cmd(%rip), %rdi
	leaq	L_.str.18(%rip), %rsi
	callq	_strcmp
	.loc	1 310 42 is_stmt 0      ## bdf_parser.c:310:42
	cmpl	$0, %eax
Ltmp67:
	.loc	1 310 15                ## bdf_parser.c:310:15
	jne	LBB2_33
## BB#32:
Ltmp68:
	.loc	1 312 5 is_stmt 1       ## bdf_parser.c:312:5
	jmp	LBB2_112
Ltmp69:
LBB2_33:
	.loc	1 313 15                ## bdf_parser.c:313:15
	leaq	_bf_parse_line.cmd(%rip), %rdi
	leaq	L_.str.19(%rip), %rsi
	callq	_strcmp
	.loc	1 313 44 is_stmt 0      ## bdf_parser.c:313:44
	cmpl	$0, %eax
Ltmp70:
	.loc	1 313 15                ## bdf_parser.c:313:15
	jne	LBB2_35
## BB#34:
Ltmp71:
	.loc	1 315 5 is_stmt 1       ## bdf_parser.c:315:5
	jmp	LBB2_111
Ltmp72:
LBB2_35:
	.loc	1 316 15                ## bdf_parser.c:316:15
	leaq	_bf_parse_line.cmd(%rip), %rdi
	leaq	L_.str.20(%rip), %rsi
	callq	_strcmp
	.loc	1 316 44 is_stmt 0      ## bdf_parser.c:316:44
	cmpl	$0, %eax
Ltmp73:
	.loc	1 316 15                ## bdf_parser.c:316:15
	jne	LBB2_37
## BB#36:
Ltmp74:
	.loc	1 318 5 is_stmt 1       ## bdf_parser.c:318:5
	jmp	LBB2_110
Ltmp75:
LBB2_37:
	.loc	1 319 15                ## bdf_parser.c:319:15
	leaq	_bf_parse_line.cmd(%rip), %rdi
	leaq	L_.str.21(%rip), %rsi
	callq	_strcmp
	.loc	1 319 39 is_stmt 0      ## bdf_parser.c:319:39
	cmpl	$0, %eax
Ltmp76:
	.loc	1 319 15                ## bdf_parser.c:319:15
	jne	LBB2_39
## BB#38:
Ltmp77:
	.loc	1 321 5 is_stmt 1       ## bdf_parser.c:321:5
	jmp	LBB2_109
Ltmp78:
LBB2_39:
	.loc	1 322 15                ## bdf_parser.c:322:15
	leaq	_bf_parse_line.cmd(%rip), %rdi
	leaq	L_.str.22(%rip), %rsi
	callq	_strcmp
	.loc	1 322 45 is_stmt 0      ## bdf_parser.c:322:45
	cmpl	$0, %eax
Ltmp79:
	.loc	1 322 15                ## bdf_parser.c:322:15
	jne	LBB2_41
## BB#40:
Ltmp80:
	.loc	1 324 5 is_stmt 1       ## bdf_parser.c:324:5
	jmp	LBB2_108
Ltmp81:
LBB2_41:
	.loc	1 325 15                ## bdf_parser.c:325:15
	leaq	_bf_parse_line.cmd(%rip), %rdi
	leaq	L_.str.23(%rip), %rsi
	callq	_strcmp
	.loc	1 325 48 is_stmt 0      ## bdf_parser.c:325:48
	cmpl	$0, %eax
Ltmp82:
	.loc	1 325 15                ## bdf_parser.c:325:15
	jne	LBB2_43
## BB#42:
Ltmp83:
	.loc	1 327 5 is_stmt 1       ## bdf_parser.c:327:5
	jmp	LBB2_107
Ltmp84:
LBB2_43:
	.loc	1 328 15                ## bdf_parser.c:328:15
	leaq	_bf_parse_line.cmd(%rip), %rdi
	leaq	L_.str.24(%rip), %rsi
	callq	_strcmp
	.loc	1 328 48 is_stmt 0      ## bdf_parser.c:328:48
	cmpl	$0, %eax
Ltmp85:
	.loc	1 328 15                ## bdf_parser.c:328:15
	jne	LBB2_45
## BB#44:
Ltmp86:
	.loc	1 330 5 is_stmt 1       ## bdf_parser.c:330:5
	jmp	LBB2_106
Ltmp87:
LBB2_45:
	.loc	1 331 15                ## bdf_parser.c:331:15
	leaq	_bf_parse_line.cmd(%rip), %rdi
	leaq	L_.str.25(%rip), %rsi
	callq	_strcmp
	.loc	1 331 43 is_stmt 0      ## bdf_parser.c:331:43
	cmpl	$0, %eax
Ltmp88:
	.loc	1 331 15                ## bdf_parser.c:331:15
	jne	LBB2_47
## BB#46:
Ltmp89:
	.loc	1 333 5 is_stmt 1       ## bdf_parser.c:333:5
	jmp	LBB2_105
Ltmp90:
LBB2_47:
	.loc	1 334 15                ## bdf_parser.c:334:15
	leaq	_bf_parse_line.cmd(%rip), %rdi
	leaq	L_.str.26(%rip), %rsi
	callq	_strcmp
	.loc	1 334 41 is_stmt 0      ## bdf_parser.c:334:41
	cmpl	$0, %eax
Ltmp91:
	.loc	1 334 15                ## bdf_parser.c:334:15
	jne	LBB2_51
## BB#48:
Ltmp92:
	.loc	1 336 12 is_stmt 1      ## bdf_parser.c:336:12
	movq	-16(%rbp), %rax
	.loc	1 336 30 is_stmt 0      ## bdf_parser.c:336:30
	cmpq	$0, 1144(%rax)
Ltmp93:
	.loc	1 336 12                ## bdf_parser.c:336:12
	je	LBB2_50
## BB#49:
Ltmp94:
	.loc	1 337 7 is_stmt 1       ## bdf_parser.c:337:7
	movq	-16(%rbp), %rax
	.loc	1 337 11 is_stmt 0      ## bdf_parser.c:337:11
	movq	1144(%rax), %rdi
	.loc	1 337 2                 ## bdf_parser.c:337:2
	callq	_free
Ltmp95:
LBB2_50:
	.loc	1 338 52 is_stmt 1      ## bdf_parser.c:338:52
	movq	-16(%rbp), %rdi
	.loc	1 338 34 is_stmt 0      ## bdf_parser.c:338:34
	callq	_bf_get_eol_string
	.loc	1 338 27                ## bdf_parser.c:338:27
	movq	%rax, %rdi
	callq	_strdup
	.loc	1 338 7                 ## bdf_parser.c:338:7
	movq	-16(%rbp), %rdi
	.loc	1 338 25                ## bdf_parser.c:338:25
	movq	%rax, 1144(%rdi)
	.loc	1 339 5 is_stmt 1       ## bdf_parser.c:339:5
	jmp	LBB2_104
Ltmp96:
LBB2_51:
	.loc	1 340 15                ## bdf_parser.c:340:15
	leaq	_bf_parse_line.cmd(%rip), %rdi
	leaq	L_.str.27(%rip), %rsi
	callq	_strcmp
	.loc	1 340 45 is_stmt 0      ## bdf_parser.c:340:45
	cmpl	$0, %eax
Ltmp97:
	.loc	1 340 15                ## bdf_parser.c:340:15
	jne	LBB2_53
## BB#52:
Ltmp98:
	.loc	1 342 5 is_stmt 1       ## bdf_parser.c:342:5
	jmp	LBB2_103
Ltmp99:
LBB2_53:
	.loc	1 343 15                ## bdf_parser.c:343:15
	leaq	_bf_parse_line.cmd(%rip), %rdi
	leaq	L_.str.28(%rip), %rsi
	callq	_strcmp
	.loc	1 343 42 is_stmt 0      ## bdf_parser.c:343:42
	cmpl	$0, %eax
Ltmp100:
	.loc	1 343 15                ## bdf_parser.c:343:15
	jne	LBB2_55
## BB#54:
Ltmp101:
	.loc	1 345 5 is_stmt 1       ## bdf_parser.c:345:5
	jmp	LBB2_102
Ltmp102:
LBB2_55:
	.loc	1 346 15                ## bdf_parser.c:346:15
	leaq	_bf_parse_line.cmd(%rip), %rdi
	leaq	L_.str.29(%rip), %rsi
	callq	_strcmp
	.loc	1 346 40 is_stmt 0      ## bdf_parser.c:346:40
	cmpl	$0, %eax
Ltmp103:
	.loc	1 346 15                ## bdf_parser.c:346:15
	jne	LBB2_57
## BB#56:
Ltmp104:
	.loc	1 348 5 is_stmt 1       ## bdf_parser.c:348:5
	jmp	LBB2_101
Ltmp105:
LBB2_57:
	.loc	1 349 15                ## bdf_parser.c:349:15
	leaq	_bf_parse_line.cmd(%rip), %rdi
	leaq	L_.str.30(%rip), %rsi
	callq	_strcmp
	.loc	1 349 38 is_stmt 0      ## bdf_parser.c:349:38
	cmpl	$0, %eax
Ltmp106:
	.loc	1 349 15                ## bdf_parser.c:349:15
	jne	LBB2_59
## BB#58:
Ltmp107:
	.loc	1 351 5 is_stmt 1       ## bdf_parser.c:351:5
	jmp	LBB2_100
Ltmp108:
LBB2_59:
	.loc	1 352 15                ## bdf_parser.c:352:15
	leaq	_bf_parse_line.cmd(%rip), %rdi
	leaq	L_.str.31(%rip), %rsi
	callq	_strcmp
	.loc	1 352 42 is_stmt 0      ## bdf_parser.c:352:42
	cmpl	$0, %eax
Ltmp109:
	.loc	1 352 15                ## bdf_parser.c:352:15
	jne	LBB2_61
## BB#60:
Ltmp110:
	.loc	1 354 5 is_stmt 1       ## bdf_parser.c:354:5
	jmp	LBB2_99
Ltmp111:
LBB2_61:
	.loc	1 355 15                ## bdf_parser.c:355:15
	leaq	_bf_parse_line.cmd(%rip), %rdi
	leaq	L_.str.32(%rip), %rsi
	callq	_strcmp
	.loc	1 355 44 is_stmt 0      ## bdf_parser.c:355:44
	cmpl	$0, %eax
Ltmp112:
	.loc	1 355 15                ## bdf_parser.c:355:15
	jne	LBB2_63
## BB#62:
Ltmp113:
	.loc	1 357 5 is_stmt 1       ## bdf_parser.c:357:5
	jmp	LBB2_98
Ltmp114:
LBB2_63:
	.loc	1 358 15                ## bdf_parser.c:358:15
	leaq	_bf_parse_line.cmd(%rip), %rdi
	leaq	L_.str.33(%rip), %rsi
	callq	_strcmp
	.loc	1 358 44 is_stmt 0      ## bdf_parser.c:358:44
	cmpl	$0, %eax
Ltmp115:
	.loc	1 358 15                ## bdf_parser.c:358:15
	jne	LBB2_65
## BB#64:
Ltmp116:
	.loc	1 360 5 is_stmt 1       ## bdf_parser.c:360:5
	jmp	LBB2_97
Ltmp117:
LBB2_65:
	.loc	1 361 15                ## bdf_parser.c:361:15
	leaq	_bf_parse_line.cmd(%rip), %rdi
	leaq	L_.str.34(%rip), %rsi
	callq	_strcmp
	.loc	1 361 43 is_stmt 0      ## bdf_parser.c:361:43
	cmpl	$0, %eax
Ltmp118:
	.loc	1 361 15                ## bdf_parser.c:361:15
	jne	LBB2_67
## BB#66:
Ltmp119:
	.loc	1 363 5 is_stmt 1       ## bdf_parser.c:363:5
	jmp	LBB2_96
Ltmp120:
LBB2_67:
	.loc	1 364 15                ## bdf_parser.c:364:15
	leaq	_bf_parse_line.cmd(%rip), %rdi
	leaq	L_.str.35(%rip), %rsi
	callq	_strcmp
	.loc	1 364 45 is_stmt 0      ## bdf_parser.c:364:45
	cmpl	$0, %eax
Ltmp121:
	.loc	1 364 15                ## bdf_parser.c:364:15
	jne	LBB2_69
## BB#68:
Ltmp122:
	.loc	1 366 5 is_stmt 1       ## bdf_parser.c:366:5
	jmp	LBB2_95
Ltmp123:
LBB2_69:
	.loc	1 367 15                ## bdf_parser.c:367:15
	leaq	_bf_parse_line.cmd(%rip), %rdi
	leaq	L_.str.36(%rip), %rsi
	callq	_strcmp
	.loc	1 367 37 is_stmt 0      ## bdf_parser.c:367:37
	cmpl	$0, %eax
Ltmp124:
	.loc	1 367 15                ## bdf_parser.c:367:15
	jne	LBB2_71
## BB#70:
Ltmp125:
	.loc	1 369 5 is_stmt 1       ## bdf_parser.c:369:5
	jmp	LBB2_94
Ltmp126:
LBB2_71:
	.loc	1 370 15                ## bdf_parser.c:370:15
	leaq	_bf_parse_line.cmd(%rip), %rdi
	leaq	L_.str.37(%rip), %rsi
	callq	_strcmp
	.loc	1 370 41 is_stmt 0      ## bdf_parser.c:370:41
	cmpl	$0, %eax
Ltmp127:
	.loc	1 370 15                ## bdf_parser.c:370:15
	jne	LBB2_73
## BB#72:
Ltmp128:
	.loc	1 372 5 is_stmt 1       ## bdf_parser.c:372:5
	jmp	LBB2_93
Ltmp129:
LBB2_73:
	.loc	1 373 15                ## bdf_parser.c:373:15
	leaq	_bf_parse_line.cmd(%rip), %rdi
	leaq	L_.str.38(%rip), %rsi
	callq	_strcmp
	.loc	1 373 40 is_stmt 0      ## bdf_parser.c:373:40
	cmpl	$0, %eax
Ltmp130:
	.loc	1 373 15                ## bdf_parser.c:373:15
	jne	LBB2_75
## BB#74:
Ltmp131:
	.loc	1 375 34 is_stmt 1      ## bdf_parser.c:375:34
	movq	-16(%rbp), %rdi
	.loc	1 375 22 is_stmt 0      ## bdf_parser.c:375:22
	callq	_bf_get_long
	.loc	1 375 7                 ## bdf_parser.c:375:7
	movq	-16(%rbp), %rdi
	.loc	1 375 20                ## bdf_parser.c:375:20
	movq	%rax, 1056(%rdi)
	.loc	1 377 5 is_stmt 1       ## bdf_parser.c:377:5
	jmp	LBB2_92
Ltmp132:
LBB2_75:
	.loc	1 378 15                ## bdf_parser.c:378:15
	leaq	_bf_parse_line.cmd(%rip), %rdi
	leaq	L_.str.39(%rip), %rsi
	callq	_strcmp
	.loc	1 378 38 is_stmt 0      ## bdf_parser.c:378:38
	cmpl	$0, %eax
Ltmp133:
	.loc	1 378 15                ## bdf_parser.c:378:15
	jne	LBB2_77
## BB#76:
Ltmp134:
	.loc	1 380 5 is_stmt 1       ## bdf_parser.c:380:5
	jmp	LBB2_91
Ltmp135:
LBB2_77:
	.loc	1 381 15                ## bdf_parser.c:381:15
	leaq	_bf_parse_line.cmd(%rip), %rdi
	leaq	L_.str.40(%rip), %rsi
	callq	_strcmp
	.loc	1 381 38 is_stmt 0      ## bdf_parser.c:381:38
	cmpl	$0, %eax
Ltmp136:
	.loc	1 381 15                ## bdf_parser.c:381:15
	jne	LBB2_79
## BB#78:
Ltmp137:
	.loc	1 383 34 is_stmt 1      ## bdf_parser.c:383:34
	movq	-16(%rbp), %rdi
	.loc	1 383 22 is_stmt 0      ## bdf_parser.c:383:22
	callq	_bf_get_long
	.loc	1 383 7                 ## bdf_parser.c:383:7
	movq	-16(%rbp), %rdi
	.loc	1 383 20                ## bdf_parser.c:383:20
	movq	%rax, 1064(%rdi)
	.loc	1 384 34 is_stmt 1      ## bdf_parser.c:384:34
	movq	-16(%rbp), %rdi
	.loc	1 384 22 is_stmt 0      ## bdf_parser.c:384:22
	callq	_bf_get_long
	.loc	1 384 7                 ## bdf_parser.c:384:7
	movq	-16(%rbp), %rdi
	.loc	1 384 20                ## bdf_parser.c:384:20
	movq	%rax, 1072(%rdi)
	.loc	1 386 5 is_stmt 1       ## bdf_parser.c:386:5
	jmp	LBB2_90
Ltmp138:
LBB2_79:
	.loc	1 387 15                ## bdf_parser.c:387:15
	leaq	_bf_parse_line.cmd(%rip), %rdi
	leaq	L_.str.41(%rip), %rsi
	callq	_strcmp
	.loc	1 387 35 is_stmt 0      ## bdf_parser.c:387:35
	cmpl	$0, %eax
Ltmp139:
	.loc	1 387 15                ## bdf_parser.c:387:15
	jne	LBB2_81
## BB#80:
Ltmp140:
	.loc	1 389 31 is_stmt 1      ## bdf_parser.c:389:31
	movq	-16(%rbp), %rdi
	.loc	1 389 19 is_stmt 0      ## bdf_parser.c:389:19
	callq	_bf_get_long
	.loc	1 389 7                 ## bdf_parser.c:389:7
	movq	-16(%rbp), %rdi
	.loc	1 389 17                ## bdf_parser.c:389:17
	movq	%rax, 1080(%rdi)
	.loc	1 390 31 is_stmt 1      ## bdf_parser.c:390:31
	movq	-16(%rbp), %rdi
	.loc	1 390 19 is_stmt 0      ## bdf_parser.c:390:19
	callq	_bf_get_long
	.loc	1 390 7                 ## bdf_parser.c:390:7
	movq	-16(%rbp), %rdi
	.loc	1 390 17                ## bdf_parser.c:390:17
	movq	%rax, 1088(%rdi)
	.loc	1 391 31 is_stmt 1      ## bdf_parser.c:391:31
	movq	-16(%rbp), %rdi
	.loc	1 391 19 is_stmt 0      ## bdf_parser.c:391:19
	callq	_bf_get_long
	.loc	1 391 7                 ## bdf_parser.c:391:7
	movq	-16(%rbp), %rdi
	.loc	1 391 17                ## bdf_parser.c:391:17
	movq	%rax, 1096(%rdi)
	.loc	1 392 31 is_stmt 1      ## bdf_parser.c:392:31
	movq	-16(%rbp), %rdi
	.loc	1 392 19 is_stmt 0      ## bdf_parser.c:392:19
	callq	_bf_get_long
	.loc	1 392 7                 ## bdf_parser.c:392:7
	movq	-16(%rbp), %rdi
	.loc	1 392 17                ## bdf_parser.c:392:17
	movq	%rax, 1104(%rdi)
	.loc	1 393 5 is_stmt 1       ## bdf_parser.c:393:5
	jmp	LBB2_89
Ltmp141:
LBB2_81:
	.loc	1 394 15                ## bdf_parser.c:394:15
	leaq	_bf_parse_line.cmd(%rip), %rdi
	leaq	L_.str.42(%rip), %rsi
	callq	_strcmp
	.loc	1 394 38 is_stmt 0      ## bdf_parser.c:394:38
	cmpl	$0, %eax
Ltmp142:
	.loc	1 394 15                ## bdf_parser.c:394:15
	jne	LBB2_85
## BB#82:
Ltmp143:
	.loc	1 396 33 is_stmt 1      ## bdf_parser.c:396:33
	movq	-16(%rbp), %rdi
	.loc	1 396 12 is_stmt 0      ## bdf_parser.c:396:12
	callq	_bf_add_glyph_to_list
	.loc	1 396 37                ## bdf_parser.c:396:37
	cmpl	$0, %eax
Ltmp144:
	.loc	1 396 12                ## bdf_parser.c:396:12
	jne	LBB2_84
## BB#83:
Ltmp145:
	.loc	1 397 2 is_stmt 1       ## bdf_parser.c:397:2
	movl	$0, -4(%rbp)
	jmp	LBB2_138
Ltmp146:
LBB2_84:
	.loc	1 398 7                 ## bdf_parser.c:398:7
	movq	-16(%rbp), %rax
	.loc	1 398 29 is_stmt 0      ## bdf_parser.c:398:29
	movl	$1, 1052(%rax)
	.loc	1 399 5 is_stmt 1       ## bdf_parser.c:399:5
	jmp	LBB2_88
Ltmp147:
LBB2_85:
	.loc	1 400 15                ## bdf_parser.c:400:15
	leaq	_bf_parse_line.cmd(%rip), %rdi
	leaq	L_.str.43(%rip), %rsi
	callq	_strcmp
	.loc	1 400 39 is_stmt 0      ## bdf_parser.c:400:39
	cmpl	$0, %eax
Ltmp148:
	.loc	1 400 15                ## bdf_parser.c:400:15
	jne	LBB2_87
## BB#86:
	.loc	1 0 15                  ## bdf_parser.c:0:15
	leaq	L_.str.44(%rip), %rsi
Ltmp149:
	.loc	1 402 16 is_stmt 1      ## bdf_parser.c:402:16
	movq	-16(%rbp), %rdi
	.loc	1 402 7 is_stmt 0       ## bdf_parser.c:402:7
	movb	$0, %al
	callq	_bf_Error
	.loc	1 403 7 is_stmt 1       ## bdf_parser.c:403:7
	movl	$0, -4(%rbp)
	jmp	LBB2_138
Ltmp150:
LBB2_87:
	.loc	1 0 7 is_stmt 0         ## bdf_parser.c:0:7
	jmp	LBB2_88
LBB2_88:
	jmp	LBB2_89
LBB2_89:
	jmp	LBB2_90
LBB2_90:
	jmp	LBB2_91
LBB2_91:
	jmp	LBB2_92
LBB2_92:
	jmp	LBB2_93
LBB2_93:
	jmp	LBB2_94
LBB2_94:
	jmp	LBB2_95
LBB2_95:
	jmp	LBB2_96
LBB2_96:
	jmp	LBB2_97
LBB2_97:
	jmp	LBB2_98
LBB2_98:
	jmp	LBB2_99
LBB2_99:
	jmp	LBB2_100
LBB2_100:
	jmp	LBB2_101
LBB2_101:
	jmp	LBB2_102
LBB2_102:
	jmp	LBB2_103
LBB2_103:
	jmp	LBB2_104
LBB2_104:
	jmp	LBB2_105
LBB2_105:
	jmp	LBB2_106
LBB2_106:
	jmp	LBB2_107
LBB2_107:
	jmp	LBB2_108
LBB2_108:
	jmp	LBB2_109
LBB2_109:
	jmp	LBB2_110
LBB2_110:
	jmp	LBB2_111
LBB2_111:
	jmp	LBB2_112
LBB2_112:
	jmp	LBB2_113
LBB2_113:
	jmp	LBB2_114
LBB2_114:
	jmp	LBB2_115
LBB2_115:
	jmp	LBB2_116
LBB2_116:
	jmp	LBB2_117
LBB2_117:
	jmp	LBB2_118
LBB2_118:
	jmp	LBB2_119
LBB2_119:
	jmp	LBB2_120
LBB2_120:
	jmp	LBB2_121
LBB2_121:
	jmp	LBB2_122
LBB2_122:
	jmp	LBB2_123
LBB2_123:
	jmp	LBB2_124
LBB2_124:
	jmp	LBB2_125
LBB2_125:
	jmp	LBB2_126
LBB2_126:
	.loc	1 405 3 is_stmt 1       ## bdf_parser.c:405:3
	jmp	LBB2_137
Ltmp151:
LBB2_127:
	.loc	1 410 5                 ## bdf_parser.c:410:5
	movq	-16(%rbp), %rdi
	callq	_bf_get_string
	leaq	_bf_parse_line.cmd(%rip), %rdi
	movl	$1024, %ecx             ## imm = 0x400
	movl	%ecx, %edx
	movq	%rax, %rsi
	callq	___strcpy_chk
Ltmp152:
	.loc	1 411 10                ## bdf_parser.c:411:10
	movsbl	_bf_parse_line.cmd(%rip), %ecx
	.loc	1 411 17 is_stmt 0      ## bdf_parser.c:411:17
	cmpl	$0, %ecx
Ltmp153:
	.loc	1 411 10                ## bdf_parser.c:411:10
	movq	%rax, -40(%rbp)         ## 8-byte Spill
	je	LBB2_136
## BB#128:
Ltmp154:
	.loc	1 413 12 is_stmt 1      ## bdf_parser.c:413:12
	leaq	_bf_parse_line.cmd(%rip), %rdi
	leaq	L_.str.43(%rip), %rsi
	callq	_strcmp
	.loc	1 413 36 is_stmt 0      ## bdf_parser.c:413:36
	cmpl	$0, %eax
Ltmp155:
	.loc	1 413 12                ## bdf_parser.c:413:12
	jne	LBB2_130
## BB#129:
Ltmp156:
	.loc	1 415 2 is_stmt 1       ## bdf_parser.c:415:2
	movq	-16(%rbp), %rax
	.loc	1 415 24 is_stmt 0      ## bdf_parser.c:415:24
	movl	$0, 1052(%rax)
	.loc	1 417 7 is_stmt 1       ## bdf_parser.c:417:7
	jmp	LBB2_135
Ltmp157:
LBB2_130:
	.loc	1 420 2                 ## bdf_parser.c:420:2
	movq	-16(%rbp), %rax
	.loc	1 420 15 is_stmt 0      ## bdf_parser.c:420:15
	movl	$0, 1048(%rax)
	.loc	1 421 15 is_stmt 1      ## bdf_parser.c:421:15
	movq	-16(%rbp), %rdi
	.loc	1 421 2 is_stmt 0       ## bdf_parser.c:421:2
	callq	_bf_skipspace
	.loc	1 424 2 is_stmt 1       ## bdf_parser.c:424:2
	movq	-16(%rbp), %rax
	.loc	1 424 15 is_stmt 0      ## bdf_parser.c:424:15
	movl	$0, 1112(%rax)
LBB2_131:                               ## =>This Inner Loop Header: Depth=1
Ltmp158:
	.loc	1 429 16 is_stmt 1      ## bdf_parser.c:429:16
	movq	-16(%rbp), %rdi
	.loc	1 429 8 is_stmt 0       ## bdf_parser.c:429:8
	callq	_bf_curr
	.loc	1 429 6                 ## bdf_parser.c:429:6
	movl	%eax, -20(%rbp)
Ltmp159:
	.loc	1 430 11 is_stmt 1      ## bdf_parser.c:430:11
	cmpl	$48, -20(%rbp)
Ltmp160:
	.loc	1 430 9 is_stmt 0       ## bdf_parser.c:430:9
	jge	LBB2_133
## BB#132:
Ltmp161:
	.loc	1 431 6 is_stmt 1       ## bdf_parser.c:431:6
	jmp	LBB2_134
Ltmp162:
LBB2_133:                               ##   in Loop: Header=BB2_131 Depth=1
	.loc	1 432 29                ## bdf_parser.c:432:29
	movq	-16(%rbp), %rdi
	.loc	1 432 33 is_stmt 0      ## bdf_parser.c:432:33
	movl	-20(%rbp), %esi
	.loc	1 432 4                 ## bdf_parser.c:432:4
	callq	_bf_set_pixel_by_hex_char
	.loc	1 433 12 is_stmt 1      ## bdf_parser.c:433:12
	movq	-16(%rbp), %rdi
	.loc	1 433 4 is_stmt 0       ## bdf_parser.c:433:4
	callq	_bf_next
Ltmp163:
	.loc	1 427 2 is_stmt 1       ## bdf_parser.c:427:2
	jmp	LBB2_131
Ltmp164:
LBB2_134:
	.loc	1 436 2                 ## bdf_parser.c:436:2
	movq	-16(%rbp), %rax
	.loc	1 436 14 is_stmt 0      ## bdf_parser.c:436:14
	movl	1116(%rax), %ecx
	addl	$1, %ecx
	movl	%ecx, 1116(%rax)
Ltmp165:
LBB2_135:
	.loc	1 438 5 is_stmt 1       ## bdf_parser.c:438:5
	jmp	LBB2_136
Ltmp166:
LBB2_136:
	.loc	1 0 5 is_stmt 0         ## bdf_parser.c:0:5
	jmp	LBB2_137
LBB2_137:
	.loc	1 440 3 is_stmt 1       ## bdf_parser.c:440:3
	movl	$1, -4(%rbp)
LBB2_138:
	.loc	1 441 1                 ## bdf_parser.c:441:1
	movl	-4(%rbp), %eax
	addq	$48, %rsp
	popq	%rbp
	retq
Ltmp167:
Lfunc_end2:
	.cfi_endproc
                                        ## -- End function
	.p2align	4, 0x90         ## -- Begin function bf_skipspace
_bf_skipspace:                          ## @bf_skipspace
Lfunc_begin3:
	.loc	1 25 0                  ## bdf_parser.c:25:0
	.cfi_startproc
## BB#0:
	pushq	%rbp
Lcfi9:
	.cfi_def_cfa_offset 16
Lcfi10:
	.cfi_offset %rbp, -16
	movq	%rsp, %rbp
Lcfi11:
	.cfi_def_cfa_register %rbp
	subq	$16, %rsp
	movq	%rdi, -8(%rbp)
LBB3_1:                                 ## =>This Inner Loop Header: Depth=1
Ltmp168:
	.loc	1 30 17 prologue_end    ## bdf_parser.c:30:17
	movq	-8(%rbp), %rdi
	.loc	1 30 9 is_stmt 0        ## bdf_parser.c:30:9
	callq	_bf_curr
	.loc	1 30 7                  ## bdf_parser.c:30:7
	movl	%eax, -12(%rbp)
Ltmp169:
	.loc	1 31 12 is_stmt 1       ## bdf_parser.c:31:12
	cmpl	$0, -12(%rbp)
Ltmp170:
	.loc	1 31 10 is_stmt 0       ## bdf_parser.c:31:10
	jne	LBB3_3
## BB#2:
Ltmp171:
	.loc	1 32 7 is_stmt 1        ## bdf_parser.c:32:7
	jmp	LBB3_6
Ltmp172:
LBB3_3:                                 ##   in Loop: Header=BB3_1 Depth=1
	.loc	1 33 12                 ## bdf_parser.c:33:12
	cmpl	$32, -12(%rbp)
Ltmp173:
	.loc	1 33 10 is_stmt 0       ## bdf_parser.c:33:10
	jle	LBB3_5
## BB#4:
Ltmp174:
	.loc	1 34 7 is_stmt 1        ## bdf_parser.c:34:7
	jmp	LBB3_6
Ltmp175:
LBB3_5:                                 ##   in Loop: Header=BB3_1 Depth=1
	.loc	1 35 13                 ## bdf_parser.c:35:13
	movq	-8(%rbp), %rdi
	.loc	1 35 5 is_stmt 0        ## bdf_parser.c:35:5
	callq	_bf_next
Ltmp176:
	.loc	1 28 3 is_stmt 1        ## bdf_parser.c:28:3
	jmp	LBB3_1
Ltmp177:
LBB3_6:
	.loc	1 37 1                  ## bdf_parser.c:37:1
	addq	$16, %rsp
	popq	%rbp
	retq
Ltmp178:
Lfunc_end3:
	.cfi_endproc
                                        ## -- End function
	.p2align	4, 0x90         ## -- Begin function bf_get_string
_bf_get_string:                         ## @bf_get_string
Lfunc_begin4:
	.loc	1 61 0                  ## bdf_parser.c:61:0
	.cfi_startproc
## BB#0:
	pushq	%rbp
Lcfi12:
	.cfi_def_cfa_offset 16
Lcfi13:
	.cfi_offset %rbp, -16
	movq	%rsp, %rbp
Lcfi14:
	.cfi_def_cfa_register %rbp
	subq	$32, %rsp
	movq	%rdi, -16(%rbp)
Ltmp179:
	.loc	1 63 7 prologue_end     ## bdf_parser.c:63:7
	movl	$0, -20(%rbp)
	.loc	1 66 10                 ## bdf_parser.c:66:10
	movb	$0, _bf_get_string.buf(%rip)
Ltmp180:
	.loc	1 68 16                 ## bdf_parser.c:68:16
	movq	-16(%rbp), %rdi
	.loc	1 68 8 is_stmt 0        ## bdf_parser.c:68:8
	callq	_bf_curr
	.loc	1 68 20                 ## bdf_parser.c:68:20
	cmpl	$34, %eax
Ltmp181:
	.loc	1 68 8                  ## bdf_parser.c:68:8
	je	LBB4_2
## BB#1:
Ltmp182:
	.loc	1 69 30 is_stmt 1       ## bdf_parser.c:69:30
	movq	-16(%rbp), %rdi
	.loc	1 69 12 is_stmt 0       ## bdf_parser.c:69:12
	callq	_bf_get_identifier
	.loc	1 69 5                  ## bdf_parser.c:69:5
	movq	%rax, -8(%rbp)
	jmp	LBB4_13
Ltmp183:
LBB4_2:
	.loc	1 71 11 is_stmt 1       ## bdf_parser.c:71:11
	movq	-16(%rbp), %rdi
	.loc	1 71 3 is_stmt 0        ## bdf_parser.c:71:3
	callq	_bf_next
LBB4_3:                                 ## =>This Inner Loop Header: Depth=1
Ltmp184:
	.loc	1 75 17 is_stmt 1       ## bdf_parser.c:75:17
	movq	-16(%rbp), %rdi
	.loc	1 75 9 is_stmt 0        ## bdf_parser.c:75:9
	callq	_bf_curr
	.loc	1 75 7                  ## bdf_parser.c:75:7
	movl	%eax, -24(%rbp)
Ltmp185:
	.loc	1 76 12 is_stmt 1       ## bdf_parser.c:76:12
	cmpl	$0, -24(%rbp)
Ltmp186:
	.loc	1 76 10 is_stmt 0       ## bdf_parser.c:76:10
	jne	LBB4_5
## BB#4:
Ltmp187:
	.loc	1 77 7 is_stmt 1        ## bdf_parser.c:77:7
	jmp	LBB4_10
Ltmp188:
LBB4_5:                                 ##   in Loop: Header=BB4_3 Depth=1
	.loc	1 78 12                 ## bdf_parser.c:78:12
	cmpl	$34, -24(%rbp)
Ltmp189:
	.loc	1 78 10 is_stmt 0       ## bdf_parser.c:78:10
	jne	LBB4_7
## BB#6:
Ltmp190:
	.loc	1 79 7 is_stmt 1        ## bdf_parser.c:79:7
	jmp	LBB4_10
Ltmp191:
LBB4_7:                                 ##   in Loop: Header=BB4_3 Depth=1
	.loc	1 80 12                 ## bdf_parser.c:80:12
	cmpl	$1022, -20(%rbp)        ## imm = 0x3FE
Ltmp192:
	.loc	1 80 10 is_stmt 0       ## bdf_parser.c:80:10
	jl	LBB4_9
## BB#8:
Ltmp193:
	.loc	1 81 7 is_stmt 1        ## bdf_parser.c:81:7
	jmp	LBB4_10
Ltmp194:
LBB4_9:                                 ##   in Loop: Header=BB4_3 Depth=1
	.loc	1 0 7 is_stmt 0         ## bdf_parser.c:0:7
	leaq	_bf_get_string.buf(%rip), %rax
	.loc	1 82 16 is_stmt 1       ## bdf_parser.c:82:16
	movl	-24(%rbp), %ecx
	movb	%cl, %dl
	.loc	1 82 10 is_stmt 0       ## bdf_parser.c:82:10
	movl	-20(%rbp), %ecx
	movl	%ecx, %esi
	addl	$1, %esi
	movl	%esi, -20(%rbp)
	.loc	1 82 5                  ## bdf_parser.c:82:5
	movslq	%ecx, %rdi
	.loc	1 82 14                 ## bdf_parser.c:82:14
	movb	%dl, (%rax,%rdi)
	.loc	1 83 5 is_stmt 1        ## bdf_parser.c:83:5
	movslq	-20(%rbp), %rdi
	.loc	1 83 12 is_stmt 0       ## bdf_parser.c:83:12
	movb	$0, (%rax,%rdi)
	.loc	1 84 13 is_stmt 1       ## bdf_parser.c:84:13
	movq	-16(%rbp), %rdi
	.loc	1 84 5 is_stmt 0        ## bdf_parser.c:84:5
	callq	_bf_next
Ltmp195:
	.loc	1 73 3 is_stmt 1        ## bdf_parser.c:73:3
	jmp	LBB4_3
Ltmp196:
LBB4_10:
	.loc	1 86 16                 ## bdf_parser.c:86:16
	movq	-16(%rbp), %rdi
	.loc	1 86 8 is_stmt 0        ## bdf_parser.c:86:8
	callq	_bf_curr
	.loc	1 86 20                 ## bdf_parser.c:86:20
	cmpl	$34, %eax
Ltmp197:
	.loc	1 86 8                  ## bdf_parser.c:86:8
	jne	LBB4_12
## BB#11:
Ltmp198:
	.loc	1 87 13 is_stmt 1       ## bdf_parser.c:87:13
	movq	-16(%rbp), %rdi
	.loc	1 87 5 is_stmt 0        ## bdf_parser.c:87:5
	callq	_bf_next
Ltmp199:
LBB4_12:
	.loc	1 89 16 is_stmt 1       ## bdf_parser.c:89:16
	movq	-16(%rbp), %rdi
	.loc	1 89 3 is_stmt 0        ## bdf_parser.c:89:3
	callq	_bf_skipspace
	leaq	_bf_get_string.buf(%rip), %rdi
	.loc	1 90 3 is_stmt 1        ## bdf_parser.c:90:3
	movq	%rdi, -8(%rbp)
LBB4_13:
	.loc	1 91 1                  ## bdf_parser.c:91:1
	movq	-8(%rbp), %rax
	addq	$32, %rsp
	popq	%rbp
	retq
Ltmp200:
Lfunc_end4:
	.cfi_endproc
                                        ## -- End function
	.p2align	4, 0x90         ## -- Begin function bf_get_eol_string
_bf_get_eol_string:                     ## @bf_get_eol_string
Lfunc_begin5:
	.loc	1 94 0                  ## bdf_parser.c:94:0
	.cfi_startproc
## BB#0:
	pushq	%rbp
Lcfi15:
	.cfi_def_cfa_offset 16
Lcfi16:
	.cfi_offset %rbp, -16
	movq	%rsp, %rbp
Lcfi17:
	.cfi_def_cfa_register %rbp
	subq	$32, %rsp
	movq	%rdi, -16(%rbp)
Ltmp201:
	.loc	1 96 7 prologue_end     ## bdf_parser.c:96:7
	movl	$0, -20(%rbp)
	.loc	1 99 10                 ## bdf_parser.c:99:10
	movb	$0, _bf_get_eol_string.buf(%rip)
Ltmp202:
	.loc	1 101 16                ## bdf_parser.c:101:16
	movq	-16(%rbp), %rdi
	.loc	1 101 8 is_stmt 0       ## bdf_parser.c:101:8
	callq	_bf_curr
	.loc	1 101 20                ## bdf_parser.c:101:20
	cmpl	$34, %eax
Ltmp203:
	.loc	1 101 8                 ## bdf_parser.c:101:8
	jne	LBB5_2
## BB#1:
Ltmp204:
	.loc	1 102 26 is_stmt 1      ## bdf_parser.c:102:26
	movq	-16(%rbp), %rdi
	.loc	1 102 12 is_stmt 0      ## bdf_parser.c:102:12
	callq	_bf_get_string
	.loc	1 102 5                 ## bdf_parser.c:102:5
	movq	%rax, -8(%rbp)
	jmp	LBB5_12
Ltmp205:
LBB5_2:
	.loc	1 105 3 is_stmt 1       ## bdf_parser.c:105:3
	jmp	LBB5_3
LBB5_3:                                 ## =>This Inner Loop Header: Depth=1
Ltmp206:
	.loc	1 107 17                ## bdf_parser.c:107:17
	movq	-16(%rbp), %rdi
	.loc	1 107 9 is_stmt 0       ## bdf_parser.c:107:9
	callq	_bf_curr
	.loc	1 107 7                 ## bdf_parser.c:107:7
	movl	%eax, -24(%rbp)
Ltmp207:
	.loc	1 108 12 is_stmt 1      ## bdf_parser.c:108:12
	cmpl	$0, -24(%rbp)
Ltmp208:
	.loc	1 108 10 is_stmt 0      ## bdf_parser.c:108:10
	jne	LBB5_5
## BB#4:
Ltmp209:
	.loc	1 109 7 is_stmt 1       ## bdf_parser.c:109:7
	jmp	LBB5_11
Ltmp210:
LBB5_5:                                 ##   in Loop: Header=BB5_3 Depth=1
	.loc	1 110 12                ## bdf_parser.c:110:12
	cmpl	$10, -24(%rbp)
	.loc	1 110 20 is_stmt 0      ## bdf_parser.c:110:20
	je	LBB5_7
## BB#6:                                ##   in Loop: Header=BB5_3 Depth=1
	.loc	1 110 25                ## bdf_parser.c:110:25
	cmpl	$13, -24(%rbp)
Ltmp211:
	.loc	1 110 10                ## bdf_parser.c:110:10
	jne	LBB5_8
LBB5_7:
Ltmp212:
	.loc	1 111 7 is_stmt 1       ## bdf_parser.c:111:7
	jmp	LBB5_11
Ltmp213:
LBB5_8:                                 ##   in Loop: Header=BB5_3 Depth=1
	.loc	1 112 12                ## bdf_parser.c:112:12
	cmpl	$1022, -20(%rbp)        ## imm = 0x3FE
Ltmp214:
	.loc	1 112 10 is_stmt 0      ## bdf_parser.c:112:10
	jl	LBB5_10
## BB#9:
Ltmp215:
	.loc	1 113 7 is_stmt 1       ## bdf_parser.c:113:7
	jmp	LBB5_11
Ltmp216:
LBB5_10:                                ##   in Loop: Header=BB5_3 Depth=1
	.loc	1 0 7 is_stmt 0         ## bdf_parser.c:0:7
	leaq	_bf_get_eol_string.buf(%rip), %rax
	.loc	1 114 16 is_stmt 1      ## bdf_parser.c:114:16
	movl	-24(%rbp), %ecx
	movb	%cl, %dl
	.loc	1 114 10 is_stmt 0      ## bdf_parser.c:114:10
	movl	-20(%rbp), %ecx
	movl	%ecx, %esi
	addl	$1, %esi
	movl	%esi, -20(%rbp)
	.loc	1 114 5                 ## bdf_parser.c:114:5
	movslq	%ecx, %rdi
	.loc	1 114 14                ## bdf_parser.c:114:14
	movb	%dl, (%rax,%rdi)
	.loc	1 115 5 is_stmt 1       ## bdf_parser.c:115:5
	movslq	-20(%rbp), %rdi
	.loc	1 115 12 is_stmt 0      ## bdf_parser.c:115:12
	movb	$0, (%rax,%rdi)
	.loc	1 116 13 is_stmt 1      ## bdf_parser.c:116:13
	movq	-16(%rbp), %rdi
	.loc	1 116 5 is_stmt 0       ## bdf_parser.c:116:5
	callq	_bf_next
Ltmp217:
	.loc	1 105 3 is_stmt 1       ## bdf_parser.c:105:3
	jmp	LBB5_3
Ltmp218:
LBB5_11:
	.loc	1 119 16                ## bdf_parser.c:119:16
	movq	-16(%rbp), %rdi
	.loc	1 119 3 is_stmt 0       ## bdf_parser.c:119:3
	callq	_bf_skipspace
	leaq	_bf_get_eol_string.buf(%rip), %rdi
	.loc	1 120 3 is_stmt 1       ## bdf_parser.c:120:3
	movq	%rdi, -8(%rbp)
LBB5_12:
	.loc	1 121 1                 ## bdf_parser.c:121:1
	movq	-8(%rbp), %rax
	addq	$32, %rsp
	popq	%rbp
	retq
Ltmp219:
Lfunc_end5:
	.cfi_endproc
                                        ## -- End function
	.p2align	4, 0x90         ## -- Begin function bf_get_long
_bf_get_long:                           ## @bf_get_long
Lfunc_begin6:
	.loc	1 124 0                 ## bdf_parser.c:124:0
	.cfi_startproc
## BB#0:
	pushq	%rbp
Lcfi18:
	.cfi_def_cfa_offset 16
Lcfi19:
	.cfi_offset %rbp, -16
	movq	%rsp, %rbp
Lcfi20:
	.cfi_def_cfa_register %rbp
	subq	$32, %rsp
	movq	%rdi, -8(%rbp)
Ltmp220:
	.loc	1 126 8 prologue_end    ## bdf_parser.c:126:8
	movq	$0, -24(%rbp)
	.loc	1 127 8                 ## bdf_parser.c:127:8
	movq	$1, -32(%rbp)
Ltmp221:
	.loc	1 129 16                ## bdf_parser.c:129:16
	movq	-8(%rbp), %rdi
	.loc	1 129 8 is_stmt 0       ## bdf_parser.c:129:8
	callq	_bf_curr
	.loc	1 129 20                ## bdf_parser.c:129:20
	cmpl	$45, %eax
Ltmp222:
	.loc	1 129 8                 ## bdf_parser.c:129:8
	jne	LBB6_2
## BB#1:
Ltmp223:
	.loc	1 131 10 is_stmt 1      ## bdf_parser.c:131:10
	movq	$-1, -32(%rbp)
	.loc	1 132 13                ## bdf_parser.c:132:13
	movq	-8(%rbp), %rdi
	.loc	1 132 5 is_stmt 0       ## bdf_parser.c:132:5
	callq	_bf_next
	.loc	1 133 18 is_stmt 1      ## bdf_parser.c:133:18
	movq	-8(%rbp), %rdi
	.loc	1 133 5 is_stmt 0       ## bdf_parser.c:133:5
	callq	_bf_skipspace
Ltmp224:
LBB6_2:
	.loc	1 136 3 is_stmt 1       ## bdf_parser.c:136:3
	jmp	LBB6_3
LBB6_3:                                 ## =>This Inner Loop Header: Depth=1
Ltmp225:
	.loc	1 138 17                ## bdf_parser.c:138:17
	movq	-8(%rbp), %rdi
	.loc	1 138 9 is_stmt 0       ## bdf_parser.c:138:9
	callq	_bf_curr
	.loc	1 138 7                 ## bdf_parser.c:138:7
	movl	%eax, -12(%rbp)
Ltmp226:
	.loc	1 139 12 is_stmt 1      ## bdf_parser.c:139:12
	cmpl	$48, -12(%rbp)
Ltmp227:
	.loc	1 139 10 is_stmt 0      ## bdf_parser.c:139:10
	jge	LBB6_5
## BB#4:
Ltmp228:
	.loc	1 140 7 is_stmt 1       ## bdf_parser.c:140:7
	jmp	LBB6_8
Ltmp229:
LBB6_5:                                 ##   in Loop: Header=BB6_3 Depth=1
	.loc	1 141 12                ## bdf_parser.c:141:12
	cmpl	$57, -12(%rbp)
Ltmp230:
	.loc	1 141 10 is_stmt 0      ## bdf_parser.c:141:10
	jle	LBB6_7
## BB#6:
Ltmp231:
	.loc	1 142 7 is_stmt 1       ## bdf_parser.c:142:7
	jmp	LBB6_8
Ltmp232:
LBB6_7:                                 ##   in Loop: Header=BB6_3 Depth=1
	.loc	1 143 7                 ## bdf_parser.c:143:7
	imulq	$10, -24(%rbp), %rax
	movq	%rax, -24(%rbp)
	.loc	1 144 17                ## bdf_parser.c:144:17
	movl	-12(%rbp), %ecx
	.loc	1 144 18 is_stmt 0      ## bdf_parser.c:144:18
	subl	$48, %ecx
	.loc	1 144 10                ## bdf_parser.c:144:10
	movslq	%ecx, %rax
	.loc	1 144 7                 ## bdf_parser.c:144:7
	addq	-24(%rbp), %rax
	movq	%rax, -24(%rbp)
	.loc	1 145 13 is_stmt 1      ## bdf_parser.c:145:13
	movq	-8(%rbp), %rdi
	.loc	1 145 5 is_stmt 0       ## bdf_parser.c:145:5
	callq	_bf_next
Ltmp233:
	.loc	1 136 3 is_stmt 1       ## bdf_parser.c:136:3
	jmp	LBB6_3
Ltmp234:
LBB6_8:
	.loc	1 147 16                ## bdf_parser.c:147:16
	movq	-8(%rbp), %rdi
	.loc	1 147 3 is_stmt 0       ## bdf_parser.c:147:3
	callq	_bf_skipspace
	.loc	1 149 10 is_stmt 1      ## bdf_parser.c:149:10
	movq	-24(%rbp), %rdi
	.loc	1 149 11 is_stmt 0      ## bdf_parser.c:149:11
	imulq	-32(%rbp), %rdi
	.loc	1 149 3                 ## bdf_parser.c:149:3
	movq	%rdi, %rax
	addq	$32, %rsp
	popq	%rbp
	retq
Ltmp235:
Lfunc_end6:
	.cfi_endproc
                                        ## -- End function
	.p2align	4, 0x90         ## -- Begin function bf_add_glyph_to_list
_bf_add_glyph_to_list:                  ## @bf_add_glyph_to_list
Lfunc_begin7:
	.loc	1 182 0 is_stmt 1       ## bdf_parser.c:182:0
	.cfi_startproc
## BB#0:
	pushq	%rbp
Lcfi21:
	.cfi_def_cfa_offset 16
Lcfi22:
	.cfi_offset %rbp, -16
	movq	%rsp, %rbp
Lcfi23:
	.cfi_def_cfa_register %rbp
	subq	$32, %rsp
	movq	%rdi, -16(%rbp)
Ltmp236:
	.loc	1 184 31 prologue_end   ## bdf_parser.c:184:31
	movq	-16(%rbp), %rdi
	.loc	1 184 19 is_stmt 0      ## bdf_parser.c:184:19
	callq	_bf_AddGlyph
	.loc	1 184 3                 ## bdf_parser.c:184:3
	movq	-16(%rbp), %rdi
	.loc	1 184 17                ## bdf_parser.c:184:17
	movl	%eax, 1120(%rdi)
Ltmp237:
	.loc	1 185 8 is_stmt 1       ## bdf_parser.c:185:8
	movq	-16(%rbp), %rdi
	.loc	1 185 22 is_stmt 0      ## bdf_parser.c:185:22
	cmpl	$0, 1120(%rdi)
Ltmp238:
	.loc	1 185 8                 ## bdf_parser.c:185:8
	jge	LBB7_2
## BB#1:
	.loc	1 0 8                   ## bdf_parser.c:0:8
	leaq	L_.str.45(%rip), %rsi
Ltmp239:
	.loc	1 187 14 is_stmt 1      ## bdf_parser.c:187:14
	movq	-16(%rbp), %rdi
	.loc	1 187 5 is_stmt 0       ## bdf_parser.c:187:5
	movb	$0, %al
	callq	_bf_Error
	.loc	1 188 5 is_stmt 1       ## bdf_parser.c:188:5
	movl	$0, -4(%rbp)
	jmp	LBB7_5
Ltmp240:
LBB7_2:
	.loc	1 191 8                 ## bdf_parser.c:191:8
	movq	-16(%rbp), %rax
	.loc	1 191 12 is_stmt 0      ## bdf_parser.c:191:12
	movq	8(%rax), %rax
	.loc	1 191 23                ## bdf_parser.c:191:23
	movq	-16(%rbp), %rcx
	.loc	1 191 8                 ## bdf_parser.c:191:8
	movslq	1120(%rcx), %rcx
	movq	(%rax,%rcx,8), %rax
	.loc	1 191 6                 ## bdf_parser.c:191:6
	movq	%rax, -24(%rbp)
	.loc	1 194 18 is_stmt 1      ## bdf_parser.c:194:18
	movq	-16(%rbp), %rax
	.loc	1 194 22 is_stmt 0      ## bdf_parser.c:194:22
	movq	1056(%rax), %rax
	.loc	1 194 3                 ## bdf_parser.c:194:3
	movq	-24(%rbp), %rcx
	.loc	1 194 16                ## bdf_parser.c:194:16
	movq	%rax, 8(%rcx)
	.loc	1 195 18 is_stmt 1      ## bdf_parser.c:195:18
	movq	-16(%rbp), %rax
	.loc	1 195 22 is_stmt 0      ## bdf_parser.c:195:22
	movq	1064(%rax), %rax
	.loc	1 195 3                 ## bdf_parser.c:195:3
	movq	-24(%rbp), %rcx
	.loc	1 195 16                ## bdf_parser.c:195:16
	movq	%rax, 24(%rcx)
	.loc	1 196 18 is_stmt 1      ## bdf_parser.c:196:18
	movq	-16(%rbp), %rax
	.loc	1 196 22 is_stmt 0      ## bdf_parser.c:196:22
	movq	1072(%rax), %rax
	.loc	1 196 3                 ## bdf_parser.c:196:3
	movq	-24(%rbp), %rcx
	.loc	1 196 16                ## bdf_parser.c:196:16
	movq	%rax, 32(%rcx)
	.loc	1 197 15 is_stmt 1      ## bdf_parser.c:197:15
	movq	-16(%rbp), %rax
	.loc	1 197 19 is_stmt 0      ## bdf_parser.c:197:19
	movq	1080(%rax), %rax
	.loc	1 197 3                 ## bdf_parser.c:197:3
	movq	-24(%rbp), %rcx
	.loc	1 197 13                ## bdf_parser.c:197:13
	movq	%rax, 40(%rcx)
	.loc	1 198 15 is_stmt 1      ## bdf_parser.c:198:15
	movq	-16(%rbp), %rax
	.loc	1 198 19 is_stmt 0      ## bdf_parser.c:198:19
	movq	1088(%rax), %rax
	.loc	1 198 3                 ## bdf_parser.c:198:3
	movq	-24(%rbp), %rcx
	.loc	1 198 13                ## bdf_parser.c:198:13
	movq	%rax, 48(%rcx)
	.loc	1 199 15 is_stmt 1      ## bdf_parser.c:199:15
	movq	-16(%rbp), %rax
	.loc	1 199 19 is_stmt 0      ## bdf_parser.c:199:19
	movq	1096(%rax), %rax
	.loc	1 199 3                 ## bdf_parser.c:199:3
	movq	-24(%rbp), %rcx
	.loc	1 199 13                ## bdf_parser.c:199:13
	movq	%rax, 56(%rcx)
	.loc	1 200 15 is_stmt 1      ## bdf_parser.c:200:15
	movq	-16(%rbp), %rax
	.loc	1 200 19 is_stmt 0      ## bdf_parser.c:200:19
	movq	1104(%rax), %rax
	.loc	1 200 3                 ## bdf_parser.c:200:3
	movq	-24(%rbp), %rcx
	.loc	1 200 13                ## bdf_parser.c:200:13
	movq	%rax, 64(%rcx)
Ltmp241:
	.loc	1 202 25 is_stmt 1      ## bdf_parser.c:202:25
	movq	-24(%rbp), %rdi
	.loc	1 202 29 is_stmt 0      ## bdf_parser.c:202:29
	movq	-16(%rbp), %rax
	.loc	1 202 33                ## bdf_parser.c:202:33
	movq	1080(%rax), %rax
	.loc	1 202 29                ## bdf_parser.c:202:29
	movl	%eax, %edx
	.loc	1 202 40                ## bdf_parser.c:202:40
	movq	-16(%rbp), %rax
	.loc	1 202 44                ## bdf_parser.c:202:44
	movq	1088(%rax), %rax
	.loc	1 202 40                ## bdf_parser.c:202:40
	movl	%eax, %esi
	.loc	1 202 8                 ## bdf_parser.c:202:8
	movl	%esi, -28(%rbp)         ## 4-byte Spill
	movl	%edx, %esi
	movl	-28(%rbp), %edx         ## 4-byte Reload
	callq	_bg_SetBitmapSize
	.loc	1 202 51                ## bdf_parser.c:202:51
	cmpl	$0, %eax
Ltmp242:
	.loc	1 202 8                 ## bdf_parser.c:202:8
	jne	LBB7_4
## BB#3:
	.loc	1 0 8                   ## bdf_parser.c:0:8
	leaq	L_.str.46(%rip), %rsi
Ltmp243:
	.loc	1 204 14 is_stmt 1      ## bdf_parser.c:204:14
	movq	-16(%rbp), %rdi
	.loc	1 204 5 is_stmt 0       ## bdf_parser.c:204:5
	movb	$0, %al
	callq	_bf_Error
	.loc	1 205 5 is_stmt 1       ## bdf_parser.c:205:5
	movl	$0, -4(%rbp)
	jmp	LBB7_5
Ltmp244:
LBB7_4:
	.loc	1 208 22                ## bdf_parser.c:208:22
	movq	-16(%rbp), %rax
	.loc	1 208 26 is_stmt 0      ## bdf_parser.c:208:26
	movq	1080(%rax), %rax
	.loc	1 208 22                ## bdf_parser.c:208:22
	movl	%eax, %ecx
	.loc	1 208 3                 ## bdf_parser.c:208:3
	movq	-24(%rbp), %rax
	.loc	1 208 20                ## bdf_parser.c:208:20
	movl	%ecx, 96(%rax)
	.loc	1 209 23 is_stmt 1      ## bdf_parser.c:209:23
	movq	-16(%rbp), %rax
	.loc	1 209 27 is_stmt 0      ## bdf_parser.c:209:27
	movq	1088(%rax), %rax
	.loc	1 209 23                ## bdf_parser.c:209:23
	movl	%eax, %ecx
	.loc	1 209 3                 ## bdf_parser.c:209:3
	movq	-24(%rbp), %rax
	.loc	1 209 21                ## bdf_parser.c:209:21
	movl	%ecx, 100(%rax)
	.loc	1 217 3 is_stmt 1       ## bdf_parser.c:217:3
	movl	$1, -4(%rbp)
LBB7_5:
	.loc	1 218 1                 ## bdf_parser.c:218:1
	movl	-4(%rbp), %eax
	addq	$32, %rsp
	popq	%rbp
	retq
Ltmp245:
Lfunc_end7:
	.cfi_endproc
                                        ## -- End function
	.p2align	4, 0x90         ## -- Begin function bf_curr
_bf_curr:                               ## @bf_curr
Lfunc_begin8:
	.loc	1 9 0                   ## bdf_parser.c:9:0
	.cfi_startproc
## BB#0:
	pushq	%rbp
Lcfi24:
	.cfi_def_cfa_offset 16
Lcfi25:
	.cfi_offset %rbp, -16
	movq	%rsp, %rbp
Lcfi26:
	.cfi_def_cfa_register %rbp
	movq	%rdi, -16(%rbp)
Ltmp246:
	.loc	1 10 8 prologue_end     ## bdf_parser.c:10:8
	movq	-16(%rbp), %rdi
	.loc	1 10 21 is_stmt 0       ## bdf_parser.c:10:21
	cmpl	$1024, 1048(%rdi)       ## imm = 0x400
Ltmp247:
	.loc	1 10 8                  ## bdf_parser.c:10:8
	jl	LBB8_2
## BB#1:
Ltmp248:
	.loc	1 11 5 is_stmt 1        ## bdf_parser.c:11:5
	movl	$0, -4(%rbp)
	jmp	LBB8_3
Ltmp249:
LBB8_2:
	.loc	1 12 10                 ## bdf_parser.c:12:10
	movq	-16(%rbp), %rax
	.loc	1 12 23 is_stmt 0       ## bdf_parser.c:12:23
	movq	-16(%rbp), %rcx
	.loc	1 12 10                 ## bdf_parser.c:12:10
	movslq	1048(%rcx), %rcx
	movsbl	24(%rax,%rcx), %edx
	.loc	1 12 3                  ## bdf_parser.c:12:3
	movl	%edx, -4(%rbp)
LBB8_3:
	.loc	1 13 1 is_stmt 1        ## bdf_parser.c:13:1
	movl	-4(%rbp), %eax
	popq	%rbp
	retq
Ltmp250:
Lfunc_end8:
	.cfi_endproc
                                        ## -- End function
	.p2align	4, 0x90         ## -- Begin function bf_set_pixel_by_hex_char
_bf_set_pixel_by_hex_char:              ## @bf_set_pixel_by_hex_char
Lfunc_begin9:
	.loc	1 241 0                 ## bdf_parser.c:241:0
	.cfi_startproc
## BB#0:
	pushq	%rbp
Lcfi27:
	.cfi_def_cfa_offset 16
Lcfi28:
	.cfi_offset %rbp, -16
	movq	%rsp, %rbp
Lcfi29:
	.cfi_def_cfa_register %rbp
	subq	$16, %rsp
	movq	%rdi, -8(%rbp)
	movl	%esi, -12(%rbp)
Ltmp251:
	.loc	1 242 12 prologue_end   ## bdf_parser.c:242:12
	cmpl	$48, -12(%rbp)
	.loc	1 242 19 is_stmt 0      ## bdf_parser.c:242:19
	jl	LBB9_3
## BB#1:
	.loc	1 242 26                ## bdf_parser.c:242:26
	cmpl	$57, -12(%rbp)
Ltmp252:
	.loc	1 242 8                 ## bdf_parser.c:242:8
	jg	LBB9_3
## BB#2:
Ltmp253:
	.loc	1 243 37 is_stmt 1      ## bdf_parser.c:243:37
	movq	-8(%rbp), %rdi
	.loc	1 243 41 is_stmt 0      ## bdf_parser.c:243:41
	movl	-12(%rbp), %eax
	.loc	1 243 44                ## bdf_parser.c:243:44
	subl	$48, %eax
	.loc	1 243 12                ## bdf_parser.c:243:12
	movl	%eax, %esi
	callq	_bf_set_pixel_by_halfbyte
	.loc	1 243 5                 ## bdf_parser.c:243:5
	jmp	LBB9_10
Ltmp254:
LBB9_3:
	.loc	1 244 12 is_stmt 1      ## bdf_parser.c:244:12
	cmpl	$97, -12(%rbp)
	.loc	1 244 19 is_stmt 0      ## bdf_parser.c:244:19
	jl	LBB9_6
## BB#4:
	.loc	1 244 26                ## bdf_parser.c:244:26
	cmpl	$102, -12(%rbp)
Ltmp255:
	.loc	1 244 8                 ## bdf_parser.c:244:8
	jg	LBB9_6
## BB#5:
Ltmp256:
	.loc	1 245 37 is_stmt 1      ## bdf_parser.c:245:37
	movq	-8(%rbp), %rdi
	.loc	1 245 41 is_stmt 0      ## bdf_parser.c:245:41
	movl	-12(%rbp), %eax
	.loc	1 245 44                ## bdf_parser.c:245:44
	subl	$97, %eax
	.loc	1 245 48                ## bdf_parser.c:245:48
	addl	$10, %eax
	.loc	1 245 12                ## bdf_parser.c:245:12
	movl	%eax, %esi
	callq	_bf_set_pixel_by_halfbyte
	.loc	1 245 5                 ## bdf_parser.c:245:5
	jmp	LBB9_10
Ltmp257:
LBB9_6:
	.loc	1 246 12 is_stmt 1      ## bdf_parser.c:246:12
	cmpl	$65, -12(%rbp)
	.loc	1 246 19 is_stmt 0      ## bdf_parser.c:246:19
	jl	LBB9_9
## BB#7:
	.loc	1 246 26                ## bdf_parser.c:246:26
	cmpl	$70, -12(%rbp)
Ltmp258:
	.loc	1 246 8                 ## bdf_parser.c:246:8
	jg	LBB9_9
## BB#8:
Ltmp259:
	.loc	1 247 37 is_stmt 1      ## bdf_parser.c:247:37
	movq	-8(%rbp), %rdi
	.loc	1 247 41 is_stmt 0      ## bdf_parser.c:247:41
	movl	-12(%rbp), %eax
	.loc	1 247 44                ## bdf_parser.c:247:44
	subl	$65, %eax
	.loc	1 247 48                ## bdf_parser.c:247:48
	addl	$10, %eax
	.loc	1 247 12                ## bdf_parser.c:247:12
	movl	%eax, %esi
	callq	_bf_set_pixel_by_halfbyte
	.loc	1 247 5                 ## bdf_parser.c:247:5
	jmp	LBB9_10
Ltmp260:
LBB9_9:
	.loc	1 0 5                   ## bdf_parser.c:0:5
	xorl	%esi, %esi
	.loc	1 248 35 is_stmt 1      ## bdf_parser.c:248:35
	movq	-8(%rbp), %rdi
	.loc	1 248 10 is_stmt 0      ## bdf_parser.c:248:10
	callq	_bf_set_pixel_by_halfbyte
LBB9_10:
	.loc	1 249 1 is_stmt 1       ## bdf_parser.c:249:1
	addq	$16, %rsp
	popq	%rbp
	retq
Ltmp261:
Lfunc_end9:
	.cfi_endproc
                                        ## -- End function
	.p2align	4, 0x90         ## -- Begin function bf_next
_bf_next:                               ## @bf_next
Lfunc_begin10:
	.loc	1 16 0                  ## bdf_parser.c:16:0
	.cfi_startproc
## BB#0:
	pushq	%rbp
Lcfi30:
	.cfi_def_cfa_offset 16
Lcfi31:
	.cfi_offset %rbp, -16
	movq	%rsp, %rbp
Lcfi32:
	.cfi_def_cfa_register %rbp
	subq	$16, %rsp
	movq	%rdi, -8(%rbp)
Ltmp262:
	.loc	1 17 16 prologue_end    ## bdf_parser.c:17:16
	movq	-8(%rbp), %rdi
	.loc	1 17 8 is_stmt 0        ## bdf_parser.c:17:8
	callq	_bf_curr
	.loc	1 17 20                 ## bdf_parser.c:17:20
	cmpl	$0, %eax
Ltmp263:
	.loc	1 17 8                  ## bdf_parser.c:17:8
	jne	LBB10_2
## BB#1:
Ltmp264:
	.loc	1 18 5 is_stmt 1        ## bdf_parser.c:18:5
	jmp	LBB10_5
Ltmp265:
LBB10_2:
	.loc	1 19 8                  ## bdf_parser.c:19:8
	movq	-8(%rbp), %rax
	.loc	1 19 21 is_stmt 0       ## bdf_parser.c:19:21
	cmpl	$1024, 1048(%rax)       ## imm = 0x400
Ltmp266:
	.loc	1 19 8                  ## bdf_parser.c:19:8
	jl	LBB10_4
## BB#3:
Ltmp267:
	.loc	1 20 5 is_stmt 1        ## bdf_parser.c:20:5
	jmp	LBB10_5
Ltmp268:
LBB10_4:
	.loc	1 21 3                  ## bdf_parser.c:21:3
	movq	-8(%rbp), %rax
	.loc	1 21 15 is_stmt 0       ## bdf_parser.c:21:15
	movl	1048(%rax), %ecx
	addl	$1, %ecx
	movl	%ecx, 1048(%rax)
LBB10_5:
	.loc	1 22 1 is_stmt 1        ## bdf_parser.c:22:1
	addq	$16, %rsp
	popq	%rbp
	retq
Ltmp269:
Lfunc_end10:
	.cfi_endproc
                                        ## -- End function
	.p2align	4, 0x90         ## -- Begin function bf_get_identifier
_bf_get_identifier:                     ## @bf_get_identifier
Lfunc_begin11:
	.loc	1 40 0                  ## bdf_parser.c:40:0
	.cfi_startproc
## BB#0:
	pushq	%rbp
Lcfi33:
	.cfi_def_cfa_offset 16
Lcfi34:
	.cfi_offset %rbp, -16
	movq	%rsp, %rbp
Lcfi35:
	.cfi_def_cfa_register %rbp
	subq	$16, %rsp
	movq	%rdi, -8(%rbp)
Ltmp270:
	.loc	1 43 7 prologue_end     ## bdf_parser.c:43:7
	movl	$0, -16(%rbp)
	.loc	1 44 10                 ## bdf_parser.c:44:10
	movb	$0, _bf_get_identifier.buf(%rip)
LBB11_1:                                ## =>This Inner Loop Header: Depth=1
Ltmp271:
	.loc	1 47 17                 ## bdf_parser.c:47:17
	movq	-8(%rbp), %rdi
	.loc	1 47 9 is_stmt 0        ## bdf_parser.c:47:9
	callq	_bf_curr
	.loc	1 47 7                  ## bdf_parser.c:47:7
	movl	%eax, -12(%rbp)
Ltmp272:
	.loc	1 48 12 is_stmt 1       ## bdf_parser.c:48:12
	cmpl	$32, -12(%rbp)
Ltmp273:
	.loc	1 48 10 is_stmt 0       ## bdf_parser.c:48:10
	jg	LBB11_3
## BB#2:
Ltmp274:
	.loc	1 49 7 is_stmt 1        ## bdf_parser.c:49:7
	jmp	LBB11_6
Ltmp275:
LBB11_3:                                ##   in Loop: Header=BB11_1 Depth=1
	.loc	1 50 12                 ## bdf_parser.c:50:12
	cmpl	$1022, -16(%rbp)        ## imm = 0x3FE
Ltmp276:
	.loc	1 50 10 is_stmt 0       ## bdf_parser.c:50:10
	jl	LBB11_5
## BB#4:
Ltmp277:
	.loc	1 51 7 is_stmt 1        ## bdf_parser.c:51:7
	jmp	LBB11_6
Ltmp278:
LBB11_5:                                ##   in Loop: Header=BB11_1 Depth=1
	.loc	1 0 7 is_stmt 0         ## bdf_parser.c:0:7
	leaq	_bf_get_identifier.buf(%rip), %rax
	.loc	1 52 16 is_stmt 1       ## bdf_parser.c:52:16
	movl	-12(%rbp), %ecx
	movb	%cl, %dl
	.loc	1 52 10 is_stmt 0       ## bdf_parser.c:52:10
	movl	-16(%rbp), %ecx
	movl	%ecx, %esi
	addl	$1, %esi
	movl	%esi, -16(%rbp)
	.loc	1 52 5                  ## bdf_parser.c:52:5
	movslq	%ecx, %rdi
	.loc	1 52 14                 ## bdf_parser.c:52:14
	movb	%dl, (%rax,%rdi)
	.loc	1 53 5 is_stmt 1        ## bdf_parser.c:53:5
	movslq	-16(%rbp), %rdi
	.loc	1 53 12 is_stmt 0       ## bdf_parser.c:53:12
	movb	$0, (%rax,%rdi)
	.loc	1 54 13 is_stmt 1       ## bdf_parser.c:54:13
	movq	-8(%rbp), %rdi
	.loc	1 54 5 is_stmt 0        ## bdf_parser.c:54:5
	callq	_bf_next
Ltmp279:
	.loc	1 45 3 is_stmt 1        ## bdf_parser.c:45:3
	jmp	LBB11_1
Ltmp280:
LBB11_6:
	.loc	1 56 16                 ## bdf_parser.c:56:16
	movq	-8(%rbp), %rdi
	.loc	1 56 3 is_stmt 0        ## bdf_parser.c:56:3
	callq	_bf_skipspace
	leaq	_bf_get_identifier.buf(%rip), %rax
	.loc	1 57 3 is_stmt 1        ## bdf_parser.c:57:3
	addq	$16, %rsp
	popq	%rbp
	retq
Ltmp281:
Lfunc_end11:
	.cfi_endproc
                                        ## -- End function
	.p2align	4, 0x90         ## -- Begin function bf_set_pixel_by_halfbyte
_bf_set_pixel_by_halfbyte:              ## @bf_set_pixel_by_halfbyte
Lfunc_begin12:
	.loc	1 221 0                 ## bdf_parser.c:221:0
	.cfi_startproc
## BB#0:
	pushq	%rbp
Lcfi36:
	.cfi_def_cfa_offset 16
Lcfi37:
	.cfi_offset %rbp, -16
	movq	%rsp, %rbp
Lcfi38:
	.cfi_def_cfa_register %rbp
	subq	$32, %rsp
	movq	%rdi, -8(%rbp)
	movl	%esi, -12(%rbp)
Ltmp282:
	.loc	1 225 3 prologue_end    ## bdf_parser.c:225:3
	movq	-8(%rbp), %rdi
	cmpq	$0, 8(%rdi)
	setne	%al
	xorb	$-1, %al
	andb	$1, %al
	movzbl	%al, %esi
	movslq	%esi, %rdi
	cmpq	$0, %rdi
	je	LBB12_2
## BB#1:
	.loc	1 0 3 is_stmt 0         ## bdf_parser.c:0:3
	leaq	L___func__.bf_set_pixel_by_halfbyte(%rip), %rdi
	leaq	L_.str.47(%rip), %rsi
	movl	$225, %edx
	leaq	L_.str.48(%rip), %rcx
	.loc	1 225 3                 ## bdf_parser.c:225:3
	callq	___assert_rtn
LBB12_2:
	jmp	LBB12_3
LBB12_3:
	.loc	1 227 8 is_stmt 1       ## bdf_parser.c:227:8
	movq	-8(%rbp), %rax
	.loc	1 227 12 is_stmt 0      ## bdf_parser.c:227:12
	movq	8(%rax), %rax
	.loc	1 227 23                ## bdf_parser.c:227:23
	movq	-8(%rbp), %rcx
	.loc	1 227 8                 ## bdf_parser.c:227:8
	movslq	1120(%rcx), %rcx
	movq	(%rax,%rcx,8), %rax
	.loc	1 227 6                 ## bdf_parser.c:227:6
	movq	%rax, -24(%rbp)
Ltmp283:
	.loc	1 229 11 is_stmt 1      ## bdf_parser.c:229:11
	movl	$0, -16(%rbp)
LBB12_4:                                ## =>This Inner Loop Header: Depth=1
Ltmp284:
	.loc	1 229 18 is_stmt 0      ## bdf_parser.c:229:18
	cmpl	$4, -16(%rbp)
Ltmp285:
	.loc	1 229 3                 ## bdf_parser.c:229:3
	jge	LBB12_9
## BB#5:                                ##   in Loop: Header=BB12_4 Depth=1
Ltmp286:
	.loc	1 231 11 is_stmt 1      ## bdf_parser.c:231:11
	movl	-12(%rbp), %eax
	.loc	1 231 20 is_stmt 0      ## bdf_parser.c:231:20
	andl	$8, %eax
	.loc	1 231 25                ## bdf_parser.c:231:25
	cmpl	$0, %eax
Ltmp287:
	.loc	1 231 10                ## bdf_parser.c:231:10
	je	LBB12_7
## BB#6:                                ##   in Loop: Header=BB12_4 Depth=1
	.loc	1 0 10                  ## bdf_parser.c:0:10
	movl	$1, %ecx
Ltmp288:
	.loc	1 233 25 is_stmt 1      ## bdf_parser.c:233:25
	movq	-24(%rbp), %rdi
	.loc	1 233 29 is_stmt 0      ## bdf_parser.c:233:29
	movq	-8(%rbp), %rax
	.loc	1 233 33                ## bdf_parser.c:233:33
	movl	1112(%rax), %esi
	.loc	1 233 43                ## bdf_parser.c:233:43
	movq	-8(%rbp), %rax
	.loc	1 233 47                ## bdf_parser.c:233:47
	movl	1116(%rax), %edx
	.loc	1 233 7                 ## bdf_parser.c:233:7
	callq	_bg_SetBitmapPixel
Ltmp289:
LBB12_7:                                ##   in Loop: Header=BB12_4 Depth=1
	.loc	1 235 13 is_stmt 1      ## bdf_parser.c:235:13
	movl	-12(%rbp), %eax
	shll	$1, %eax
	movl	%eax, -12(%rbp)
	.loc	1 236 5                 ## bdf_parser.c:236:5
	movq	-8(%rbp), %rcx
	.loc	1 236 17 is_stmt 0      ## bdf_parser.c:236:17
	movl	1112(%rcx), %eax
	addl	$1, %eax
	movl	%eax, 1112(%rcx)
Ltmp290:
## BB#8:                                ##   in Loop: Header=BB12_4 Depth=1
	.loc	1 229 24 is_stmt 1      ## bdf_parser.c:229:24
	movl	-16(%rbp), %eax
	addl	$1, %eax
	movl	%eax, -16(%rbp)
	.loc	1 229 3 is_stmt 0       ## bdf_parser.c:229:3
	jmp	LBB12_4
Ltmp291:
LBB12_9:
	.loc	1 238 1 is_stmt 1       ## bdf_parser.c:238:1
	addq	$32, %rsp
	popq	%rbp
	retq
Ltmp292:
Lfunc_end12:
	.cfi_endproc
                                        ## -- End function
	.section	__TEXT,__cstring,cstring_literals
L_.str:                                 ## @.str
	.asciz	"r"

L_.str.1:                               ## @.str.1
	.asciz	"Can not open bdf file '%s'"

L_.str.2:                               ## @.str.2
	.asciz	"Parse File %s: %d glyph(s) found"

L_.str.3:                               ## @.str.3
	.asciz	"perse error in line %ld"

.zerofill __DATA,__bss,_bf_parse_line.cmd,1024,4 ## @bf_parse_line.cmd
L_.str.4:                               ## @.str.4
	.space	1

L_.str.5:                               ## @.str.5
	.asciz	"STARTFONT"

L_.str.6:                               ## @.str.6
	.asciz	"FONT"

L_.str.7:                               ## @.str.7
	.asciz	"SIZE"

L_.str.8:                               ## @.str.8
	.asciz	"FONTBOUNDINGBOX"

L_.str.9:                               ## @.str.9
	.asciz	"STARTPROPERTIES"

L_.str.10:                              ## @.str.10
	.asciz	"FONTNAME_REGISTRY"

L_.str.11:                              ## @.str.11
	.asciz	"FOUNDRY"

L_.str.12:                              ## @.str.12
	.asciz	"FAMILY_NAME"

L_.str.13:                              ## @.str.13
	.asciz	"WEIGHT_NAME"

L_.str.14:                              ## @.str.14
	.asciz	"SLANT"

L_.str.15:                              ## @.str.15
	.asciz	"SETWIDTH_NAME"

L_.str.16:                              ## @.str.16
	.asciz	"ADD_STYLE_NAME"

L_.str.17:                              ## @.str.17
	.asciz	"PIXEL_SIZE"

L_.str.18:                              ## @.str.18
	.asciz	"POINT_SIZE"

L_.str.19:                              ## @.str.19
	.asciz	"RESOLUTION_X"

L_.str.20:                              ## @.str.20
	.asciz	"RESOLUTION_Y"

L_.str.21:                              ## @.str.21
	.asciz	"SPACING"

L_.str.22:                              ## @.str.22
	.asciz	"AVERAGE_WIDTH"

L_.str.23:                              ## @.str.23
	.asciz	"CHARSET_REGISTRY"

L_.str.24:                              ## @.str.24
	.asciz	"CHARSET_ENCODING"

L_.str.25:                              ## @.str.25
	.asciz	"DESTINATION"

L_.str.26:                              ## @.str.26
	.asciz	"COPYRIGHT"

L_.str.27:                              ## @.str.27
	.asciz	"_XMBDFED_INFO"

L_.str.28:                              ## @.str.28
	.asciz	"CAP_HEIGHT"

L_.str.29:                              ## @.str.29
	.asciz	"X_HEIGHT"

L_.str.30:                              ## @.str.30
	.asciz	"WEIGHT"

L_.str.31:                              ## @.str.31
	.asciz	"QUAD_WIDTH"

L_.str.32:                              ## @.str.32
	.asciz	"DEFAULT_CHAR"

L_.str.33:                              ## @.str.33
	.asciz	"FONT_DESCENT"

L_.str.34:                              ## @.str.34
	.asciz	"FONT_ASCENT"

L_.str.35:                              ## @.str.35
	.asciz	"ENDPROPERTIES"

L_.str.36:                              ## @.str.36
	.asciz	"CHARS"

L_.str.37:                              ## @.str.37
	.asciz	"STARTCHAR"

L_.str.38:                              ## @.str.38
	.asciz	"ENCODING"

L_.str.39:                              ## @.str.39
	.asciz	"SWIDTH"

L_.str.40:                              ## @.str.40
	.asciz	"DWIDTH"

L_.str.41:                              ## @.str.41
	.asciz	"BBX"

L_.str.42:                              ## @.str.42
	.asciz	"BITMAP"

L_.str.43:                              ## @.str.43
	.asciz	"ENDCHAR"

L_.str.44:                              ## @.str.44
	.asciz	"Unexpected ENDCHAR found"

.zerofill __DATA,__bss,_bf_get_string.buf,1024,4 ## @bf_get_string.buf
.zerofill __DATA,__bss,_bf_get_identifier.buf,1024,4 ## @bf_get_identifier.buf
.zerofill __DATA,__bss,_bf_get_eol_string.buf,1024,4 ## @bf_get_eol_string.buf
L_.str.45:                              ## @.str.45
	.asciz	"Can not add glyph (memory error?)"

L_.str.46:                              ## @.str.46
	.asciz	"Can not create bitmap (memory error?)"

L___func__.bf_set_pixel_by_halfbyte:    ## @__func__.bf_set_pixel_by_halfbyte
	.asciz	"bf_set_pixel_by_halfbyte"

L_.str.47:                              ## @.str.47
	.asciz	"bdf_parser.c"

L_.str.48:                              ## @.str.48
	.asciz	"bf->glyph_list != NULL"

	.file	2 "." "bdf_font.h"
	.file	3 "." "bdf_glyph.h"
	.file	4 "/usr/include/_types" "_uint8_t.h"
	.file	5 "/usr/include" "_stdio.h"
	.file	6 "/usr/include/i386" "_types.h"
	.file	7 "/usr/include/sys" "_types.h"