	.section	__TEXT,__text,regular,pure_instructions
	.macosx_version_min 10, 13
	.file	1 "bdf_map.c"
	.globl	_bf_map_cmd             ## -- Begin function bf_map_cmd
	.p2align	4, 0x90
_bf_map_cmd:                            ## @bf_map_cmd
Lfunc_begin0:
	.loc	1 218 0                 ## bdf_map.c:218:0
	.cfi_startproc
## BB#0:
	pushq	%rbp
Lcfi0:
	.cfi_def_cfa_offset 16
Lcfi1:
	.cfi_offset %rbp, -16
	movq	%rsp, %rbp
Lcfi2:
	.cfi_def_cfa_register %rbp
	subq	$64, %rsp
	movq	%rdi, -8(%rbp)
	movq	%rsi, -16(%rbp)
Ltmp0:
	.loc	1 223 10 prologue_end   ## bdf_map.c:223:10
	movq	-16(%rbp), %rsi
	.loc	1 223 9 is_stmt 0       ## bdf_map.c:223:9
	movq	(%rsi), %rsi
	.loc	1 223 8                 ## bdf_map.c:223:8
	movsbl	(%rsi), %eax
	.loc	1 223 12                ## bdf_map.c:223:12
	cmpl	$44, %eax
	.loc	1 223 19                ## bdf_map.c:223:19
	je	LBB0_2
## BB#1:
	.loc	1 223 24                ## bdf_map.c:223:24
	movq	-16(%rbp), %rax
	.loc	1 223 23                ## bdf_map.c:223:23
	movq	(%rax), %rax
	.loc	1 223 22                ## bdf_map.c:223:22
	movsbl	(%rax), %ecx
	.loc	1 223 26                ## bdf_map.c:223:26
	cmpl	$0, %ecx
Ltmp1:
	.loc	1 223 8                 ## bdf_map.c:223:8
	jne	LBB0_3
LBB0_2:
Ltmp2:
	.loc	1 224 5 is_stmt 1       ## bdf_map.c:224:5
	jmp	LBB0_21
Ltmp3:
LBB0_3:
	.loc	1 226 11                ## bdf_map.c:226:11
	movq	-16(%rbp), %rdi
	.loc	1 226 3 is_stmt 0       ## bdf_map.c:226:3
	callq	_map_cmd
Ltmp4:
	.loc	1 229 8 is_stmt 1       ## bdf_map.c:229:8
	movq	_range_from(%rip), %rdi
	.loc	1 229 19 is_stmt 0      ## bdf_map.c:229:19
	cmpq	_range_to(%rip), %rdi
Ltmp5:
	.loc	1 229 8                 ## bdf_map.c:229:8
	je	LBB0_5
## BB#4:
	.loc	1 0 8                   ## bdf_map.c:0:8
	leaq	L_.str(%rip), %rsi
Ltmp6:
	.loc	1 231 12 is_stmt 1      ## bdf_map.c:231:12
	movq	-8(%rbp), %rdi
	.loc	1 231 74 is_stmt 0      ## bdf_map.c:231:74
	movl	_is_exclude(%rip), %edx
	.loc	1 231 86                ## bdf_map.c:231:86
	movq	_range_from(%rip), %rcx
	.loc	1 231 98                ## bdf_map.c:231:98
	movq	_range_from(%rip), %r8
	.loc	1 231 110               ## bdf_map.c:231:110
	movq	_range_to(%rip), %r9
	.loc	1 231 120               ## bdf_map.c:231:120
	movq	_range_to(%rip), %rax
	.loc	1 231 130               ## bdf_map.c:231:130
	movq	_map_to(%rip), %r10
	.loc	1 231 138               ## bdf_map.c:231:138
	movq	_map_to(%rip), %r11
	.loc	1 231 5                 ## bdf_map.c:231:5
	movq	%rax, (%rsp)
	movq	%r10, 8(%rsp)
	movq	%r11, 16(%rsp)
	movb	$0, %al
	callq	_bf_Log
	.loc	1 232 3 is_stmt 1       ## bdf_map.c:232:3
	jmp	LBB0_8
Ltmp7:
LBB0_5:
	.loc	1 233 47                ## bdf_map.c:233:47
	cmpl	$0, _bf_map_cmd.is_log_disabled_for_single_glyphs(%rip)
Ltmp8:
	.loc	1 233 13 is_stmt 0      ## bdf_map.c:233:13
	jne	LBB0_7
## BB#6:
	.loc	1 0 13                  ## bdf_map.c:0:13
	leaq	L_.str.1(%rip), %rsi
Ltmp9:
	.loc	1 235 12 is_stmt 1      ## bdf_map.c:235:12
	movq	-8(%rbp), %rdi
	.loc	1 235 111 is_stmt 0     ## bdf_map.c:235:111
	movl	_is_exclude(%rip), %edx
	.loc	1 235 123               ## bdf_map.c:235:123
	movq	_range_from(%rip), %rcx
	.loc	1 235 135               ## bdf_map.c:235:135
	movq	_range_from(%rip), %r8
	.loc	1 235 147               ## bdf_map.c:235:147
	movq	_range_to(%rip), %r9
	.loc	1 235 157               ## bdf_map.c:235:157
	movq	_range_to(%rip), %rax
	.loc	1 235 167               ## bdf_map.c:235:167
	movq	_map_to(%rip), %r10
	.loc	1 235 175               ## bdf_map.c:235:175
	movq	_map_to(%rip), %r11
	.loc	1 235 5                 ## bdf_map.c:235:5
	movq	%rax, (%rsp)
	movq	%r10, 8(%rsp)
	movq	%r11, 16(%rsp)
	movb	$0, %al
	callq	_bf_Log
	.loc	1 236 39 is_stmt 1      ## bdf_map.c:236:39
	movl	$1, _bf_map_cmd.is_log_disabled_for_single_glyphs(%rip)
Ltmp10:
LBB0_7:
	.loc	1 0 39 is_stmt 0        ## bdf_map.c:0:39
	jmp	LBB0_8
LBB0_8:
Ltmp11:
	.loc	1 240 10 is_stmt 1      ## bdf_map.c:240:10
	movl	$0, -20(%rbp)
LBB0_9:                                 ## =>This Inner Loop Header: Depth=1
Ltmp12:
	.loc	1 240 15 is_stmt 0      ## bdf_map.c:240:15
	movl	-20(%rbp), %eax
	.loc	1 240 19                ## bdf_map.c:240:19
	movq	-8(%rbp), %rcx
	.loc	1 240 17                ## bdf_map.c:240:17
	cmpl	16(%rcx), %eax
Ltmp13:
	.loc	1 240 3                 ## bdf_map.c:240:3
	jge	LBB0_21
## BB#10:                               ##   in Loop: Header=BB0_9 Depth=1
Ltmp14:
	.loc	1 242 10 is_stmt 1      ## bdf_map.c:242:10
	movq	-8(%rbp), %rax
	.loc	1 242 14 is_stmt 0      ## bdf_map.c:242:14
	movq	8(%rax), %rax
	.loc	1 242 10                ## bdf_map.c:242:10
	movslq	-20(%rbp), %rcx
	movq	(%rax,%rcx,8), %rax
	.loc	1 242 8                 ## bdf_map.c:242:8
	movq	%rax, -32(%rbp)
Ltmp15:
	.loc	1 243 10 is_stmt 1      ## bdf_map.c:243:10
	movq	-32(%rbp), %rax
	.loc	1 243 14 is_stmt 0      ## bdf_map.c:243:14
	movq	8(%rax), %rax
	.loc	1 243 23                ## bdf_map.c:243:23
	cmpq	_range_from(%rip), %rax
	.loc	1 243 37                ## bdf_map.c:243:37
	jl	LBB0_19
## BB#11:                               ##   in Loop: Header=BB0_9 Depth=1
	.loc	1 243 40                ## bdf_map.c:243:40
	movq	-32(%rbp), %rax
	.loc	1 243 44                ## bdf_map.c:243:44
	movq	8(%rax), %rax
	.loc	1 243 53                ## bdf_map.c:243:53
	cmpq	_range_to(%rip), %rax
Ltmp16:
	.loc	1 243 10                ## bdf_map.c:243:10
	jg	LBB0_19
## BB#12:                               ##   in Loop: Header=BB0_9 Depth=1
Ltmp17:
	.loc	1 245 28 is_stmt 1      ## bdf_map.c:245:28
	cmpl	$0, _is_kern_exclude(%rip)
Ltmp18:
	.loc	1 245 12 is_stmt 0      ## bdf_map.c:245:12
	je	LBB0_14
## BB#13:                               ##   in Loop: Header=BB0_9 Depth=1
Ltmp19:
	.loc	1 247 8 is_stmt 1       ## bdf_map.c:247:8
	movq	-32(%rbp), %rax
	.loc	1 247 37 is_stmt 0      ## bdf_map.c:247:37
	movl	$1, 80(%rax)
	.loc	1 248 7 is_stmt 1       ## bdf_map.c:248:7
	jmp	LBB0_18
Ltmp20:
LBB0_14:                                ##   in Loop: Header=BB0_9 Depth=1
	.loc	1 251 24                ## bdf_map.c:251:24
	cmpl	$0, _is_exclude(%rip)
Ltmp21:
	.loc	1 251 13 is_stmt 0      ## bdf_map.c:251:13
	je	LBB0_16
## BB#15:                               ##   in Loop: Header=BB0_9 Depth=1
Ltmp22:
	.loc	1 253 3 is_stmt 1       ## bdf_map.c:253:3
	movq	-32(%rbp), %rax
	.loc	1 253 14 is_stmt 0      ## bdf_map.c:253:14
	movq	$-1, 16(%rax)
	.loc	1 254 8 is_stmt 1       ## bdf_map.c:254:8
	jmp	LBB0_17
Ltmp23:
LBB0_16:                                ##   in Loop: Header=BB0_9 Depth=1
	.loc	1 257 16                ## bdf_map.c:257:16
	movq	-32(%rbp), %rax
	.loc	1 257 20 is_stmt 0      ## bdf_map.c:257:20
	movq	8(%rax), %rax
	.loc	1 257 29                ## bdf_map.c:257:29
	subq	_range_from(%rip), %rax
	.loc	1 257 42                ## bdf_map.c:257:42
	addq	_map_to(%rip), %rax
	.loc	1 257 3                 ## bdf_map.c:257:3
	movq	-32(%rbp), %rcx
	.loc	1 257 14                ## bdf_map.c:257:14
	movq	%rax, 16(%rcx)
Ltmp24:
LBB0_17:                                ##   in Loop: Header=BB0_9 Depth=1
	.loc	1 0 14                  ## bdf_map.c:0:14
	jmp	LBB0_18
LBB0_18:                                ##   in Loop: Header=BB0_9 Depth=1
	.loc	1 260 5 is_stmt 1       ## bdf_map.c:260:5
	jmp	LBB0_19
Ltmp25:
LBB0_19:                                ##   in Loop: Header=BB0_9 Depth=1
	.loc	1 261 3                 ## bdf_map.c:261:3
	jmp	LBB0_20
Ltmp26:
LBB0_20:                                ##   in Loop: Header=BB0_9 Depth=1
	.loc	1 240 35                ## bdf_map.c:240:35
	movl	-20(%rbp), %eax
	addl	$1, %eax
	movl	%eax, -20(%rbp)
	.loc	1 240 3 is_stmt 0       ## bdf_map.c:240:3
	jmp	LBB0_9
Ltmp27:
LBB0_21:
	.loc	1 263 1 is_stmt 1       ## bdf_map.c:263:1
	addq	$64, %rsp
	popq	%rbp
	retq
Ltmp28:
Lfunc_end0:
	.cfi_endproc
                                        ## -- End function
	.p2align	4, 0x90         ## -- Begin function map_cmd
_map_cmd:                               ## @map_cmd
Lfunc_begin1:
	.loc	1 172 0                 ## bdf_map.c:172:0
	.cfi_startproc
## BB#0:
	pushq	%rbp
Lcfi3:
	.cfi_def_cfa_offset 16
Lcfi4:
	.cfi_offset %rbp, -16
	movq	%rsp, %rbp
Lcfi5:
	.cfi_def_cfa_register %rbp
	subq	$16, %rsp
	movq	%rdi, -8(%rbp)
Ltmp29:
	.loc	1 173 10 prologue_end   ## bdf_map.c:173:10
	movq	-8(%rbp), %rdi
	.loc	1 173 9 is_stmt 0       ## bdf_map.c:173:9
	movq	(%rdi), %rdi
	.loc	1 173 8                 ## bdf_map.c:173:8
	movsbl	(%rdi), %eax
	.loc	1 173 12                ## bdf_map.c:173:12
	cmpl	$42, %eax
Ltmp30:
	.loc	1 173 8                 ## bdf_map.c:173:8
	jne	LBB1_2
## BB#1:
Ltmp31:
	.loc	1 175 16 is_stmt 1      ## bdf_map.c:175:16
	movq	$32, _range_from(%rip)
	.loc	1 176 14                ## bdf_map.c:176:14
	movq	$255, _range_to(%rip)
	.loc	1 177 12                ## bdf_map.c:177:12
	movq	$32, _map_to(%rip)
	.loc	1 178 16                ## bdf_map.c:178:16
	movl	$0, _is_exclude(%rip)
	.loc	1 179 21                ## bdf_map.c:179:21
	movl	$0, _is_kern_exclude(%rip)
	.loc	1 181 7                 ## bdf_map.c:181:7
	movq	-8(%rbp), %rax
	.loc	1 181 9 is_stmt 0       ## bdf_map.c:181:9
	movq	(%rax), %rcx
	addq	$1, %rcx
	movq	%rcx, (%rax)
	.loc	1 182 16 is_stmt 1      ## bdf_map.c:182:16
	movq	-8(%rbp), %rdi
	.loc	1 182 5 is_stmt 0       ## bdf_map.c:182:5
	callq	_skip_space
	.loc	1 183 3 is_stmt 1       ## bdf_map.c:183:3
	jmp	LBB1_11
Ltmp32:
LBB1_2:
	.loc	1 184 15                ## bdf_map.c:184:15
	movq	-8(%rbp), %rax
	.loc	1 184 14 is_stmt 0      ## bdf_map.c:184:14
	movq	(%rax), %rax
	.loc	1 184 13                ## bdf_map.c:184:13
	movsbl	(%rax), %ecx
	.loc	1 184 17                ## bdf_map.c:184:17
	cmpl	$126, %ecx
Ltmp33:
	.loc	1 184 13                ## bdf_map.c:184:13
	jne	LBB1_4
## BB#3:
Ltmp34:
	.loc	1 186 16 is_stmt 1      ## bdf_map.c:186:16
	movl	$1, _is_exclude(%rip)
	.loc	1 187 12                ## bdf_map.c:187:12
	movq	$0, _map_to(%rip)
	.loc	1 189 7                 ## bdf_map.c:189:7
	movq	-8(%rbp), %rax
	.loc	1 189 9 is_stmt 0       ## bdf_map.c:189:9
	movq	(%rax), %rcx
	addq	$1, %rcx
	movq	%rcx, (%rax)
	.loc	1 190 16 is_stmt 1      ## bdf_map.c:190:16
	movq	-8(%rbp), %rdi
	.loc	1 190 5 is_stmt 0       ## bdf_map.c:190:5
	callq	_skip_space
	.loc	1 191 15 is_stmt 1      ## bdf_map.c:191:15
	movq	-8(%rbp), %rdi
	.loc	1 191 5 is_stmt 0       ## bdf_map.c:191:5
	callq	_get_range
	.loc	1 193 3 is_stmt 1       ## bdf_map.c:193:3
	jmp	LBB1_10
Ltmp35:
LBB1_4:
	.loc	1 194 15                ## bdf_map.c:194:15
	movq	-8(%rbp), %rax
	.loc	1 194 14 is_stmt 0      ## bdf_map.c:194:14
	movq	(%rax), %rax
	.loc	1 194 13                ## bdf_map.c:194:13
	movsbl	(%rax), %ecx
	.loc	1 194 17                ## bdf_map.c:194:17
	cmpl	$120, %ecx
Ltmp36:
	.loc	1 194 13                ## bdf_map.c:194:13
	jne	LBB1_6
## BB#5:
Ltmp37:
	.loc	1 196 21 is_stmt 1      ## bdf_map.c:196:21
	movl	$1, _is_kern_exclude(%rip)
	.loc	1 197 12                ## bdf_map.c:197:12
	movq	$0, _map_to(%rip)
	.loc	1 199 7                 ## bdf_map.c:199:7
	movq	-8(%rbp), %rax
	.loc	1 199 9 is_stmt 0       ## bdf_map.c:199:9
	movq	(%rax), %rcx
	addq	$1, %rcx
	movq	%rcx, (%rax)
	.loc	1 200 16 is_stmt 1      ## bdf_map.c:200:16
	movq	-8(%rbp), %rdi
	.loc	1 200 5 is_stmt 0       ## bdf_map.c:200:5
	callq	_skip_space
	.loc	1 201 15 is_stmt 1      ## bdf_map.c:201:15
	movq	-8(%rbp), %rdi
	.loc	1 201 5 is_stmt 0       ## bdf_map.c:201:5
	callq	_get_range
	.loc	1 202 3 is_stmt 1       ## bdf_map.c:202:3
	jmp	LBB1_9
Ltmp38:
LBB1_6:
	.loc	1 205 16                ## bdf_map.c:205:16
	movl	$0, _is_exclude(%rip)
	.loc	1 206 15                ## bdf_map.c:206:15
	movq	-8(%rbp), %rdi
	.loc	1 206 5 is_stmt 0       ## bdf_map.c:206:5
	callq	_get_range
	.loc	1 207 14 is_stmt 1      ## bdf_map.c:207:14
	movq	_range_from(%rip), %rdi
	.loc	1 207 12 is_stmt 0      ## bdf_map.c:207:12
	movq	%rdi, _map_to(%rip)
Ltmp39:
	.loc	1 208 12 is_stmt 1      ## bdf_map.c:208:12
	movq	-8(%rbp), %rdi
	.loc	1 208 11 is_stmt 0      ## bdf_map.c:208:11
	movq	(%rdi), %rdi
	.loc	1 208 10                ## bdf_map.c:208:10
	movsbl	(%rdi), %eax
	.loc	1 208 14                ## bdf_map.c:208:14
	cmpl	$62, %eax
Ltmp40:
	.loc	1 208 10                ## bdf_map.c:208:10
	jne	LBB1_8
## BB#7:
Ltmp41:
	.loc	1 210 9 is_stmt 1       ## bdf_map.c:210:9
	movq	-8(%rbp), %rax
	.loc	1 210 11 is_stmt 0      ## bdf_map.c:210:11
	movq	(%rax), %rcx
	addq	$1, %rcx
	movq	%rcx, (%rax)
	.loc	1 211 18 is_stmt 1      ## bdf_map.c:211:18
	movq	-8(%rbp), %rdi
	.loc	1 211 7 is_stmt 0       ## bdf_map.c:211:7
	callq	_skip_space
	.loc	1 212 27 is_stmt 1      ## bdf_map.c:212:27
	movq	-8(%rbp), %rdi
	.loc	1 212 16 is_stmt 0      ## bdf_map.c:212:16
	callq	_get_addsub
	.loc	1 212 14                ## bdf_map.c:212:14
	movq	%rax, _map_to(%rip)
Ltmp42:
LBB1_8:
	.loc	1 0 14                  ## bdf_map.c:0:14
	jmp	LBB1_9
LBB1_9:
	jmp	LBB1_10
LBB1_10:
	jmp	LBB1_11
LBB1_11:
	.loc	1 215 1 is_stmt 1       ## bdf_map.c:215:1
	addq	$16, %rsp
	popq	%rbp
	retq
Ltmp43:
Lfunc_end1:
	.cfi_endproc
                                        ## -- End function
	.globl	_bf_map_list            ## -- Begin function bf_map_list
	.p2align	4, 0x90
_bf_map_list:                           ## @bf_map_list
Lfunc_begin2:
	.loc	1 266 0                 ## bdf_map.c:266:0
	.cfi_startproc
## BB#0:
	pushq	%rbp
Lcfi6:
	.cfi_def_cfa_offset 16
Lcfi7:
	.cfi_offset %rbp, -16
	movq	%rsp, %rbp
Lcfi8:
	.cfi_def_cfa_register %rbp
	subq	$32, %rsp
	movq	%rdi, -8(%rbp)
	movq	%rsi, -16(%rbp)
Ltmp44:
	.loc	1 271 10 prologue_end   ## bdf_map.c:271:10
	movl	$0, -20(%rbp)
LBB2_1:                                 ## =>This Inner Loop Header: Depth=1
Ltmp45:
	.loc	1 271 15 is_stmt 0      ## bdf_map.c:271:15
	movl	-20(%rbp), %eax
	.loc	1 271 19                ## bdf_map.c:271:19
	movq	-8(%rbp), %rcx
	.loc	1 271 17                ## bdf_map.c:271:17
	cmpl	16(%rcx), %eax
Ltmp46:
	.loc	1 271 3                 ## bdf_map.c:271:3
	jge	LBB2_4
## BB#2:                                ##   in Loop: Header=BB2_1 Depth=1
Ltmp47:
	.loc	1 273 10 is_stmt 1      ## bdf_map.c:273:10
	movq	-8(%rbp), %rax
	.loc	1 273 14 is_stmt 0      ## bdf_map.c:273:14
	movq	8(%rax), %rax
	.loc	1 273 10                ## bdf_map.c:273:10
	movslq	-20(%rbp), %rcx
	movq	(%rax,%rcx,8), %rax
	.loc	1 273 8                 ## bdf_map.c:273:8
	movq	%rax, -32(%rbp)
	.loc	1 274 5 is_stmt 1       ## bdf_map.c:274:5
	movq	-32(%rbp), %rax
	.loc	1 274 16 is_stmt 0      ## bdf_map.c:274:16
	movq	$-1, 16(%rax)
Ltmp48:
## BB#3:                                ##   in Loop: Header=BB2_1 Depth=1
	.loc	1 271 35 is_stmt 1      ## bdf_map.c:271:35
	movl	-20(%rbp), %eax
	addl	$1, %eax
	movl	%eax, -20(%rbp)
	.loc	1 271 3 is_stmt 0       ## bdf_map.c:271:3
	jmp	LBB2_1
Ltmp49:
LBB2_4:
	.loc	1 278 14 is_stmt 1      ## bdf_map.c:278:14
	movq	-16(%rbp), %rdi
	.loc	1 278 3 is_stmt 0       ## bdf_map.c:278:3
	callq	_skip_space
LBB2_5:                                 ## =>This Inner Loop Header: Depth=1
Ltmp50:
	.loc	1 281 16 is_stmt 1      ## bdf_map.c:281:16
	movq	-8(%rbp), %rdi
	.loc	1 281 20 is_stmt 0      ## bdf_map.c:281:20
	movq	-16(%rbp), %rsi
	.loc	1 281 5                 ## bdf_map.c:281:5
	callq	_bf_map_cmd
Ltmp51:
	.loc	1 282 12 is_stmt 1      ## bdf_map.c:282:12
	movq	-16(%rbp), %rsi
	.loc	1 282 11 is_stmt 0      ## bdf_map.c:282:11
	movq	(%rsi), %rsi
	.loc	1 282 10                ## bdf_map.c:282:10
	movsbl	(%rsi), %eax
	.loc	1 282 14                ## bdf_map.c:282:14
	cmpl	$44, %eax
Ltmp52:
	.loc	1 282 10                ## bdf_map.c:282:10
	je	LBB2_7
## BB#6:
Ltmp53:
	.loc	1 283 7 is_stmt 1       ## bdf_map.c:283:7
	jmp	LBB2_8
Ltmp54:
LBB2_7:                                 ##   in Loop: Header=BB2_5 Depth=1
	.loc	1 284 7                 ## bdf_map.c:284:7
	movq	-16(%rbp), %rax
	.loc	1 284 9 is_stmt 0       ## bdf_map.c:284:9
	movq	(%rax), %rcx
	addq	$1, %rcx
	movq	%rcx, (%rax)
	.loc	1 285 16 is_stmt 1      ## bdf_map.c:285:16
	movq	-16(%rbp), %rdi
	.loc	1 285 5 is_stmt 0       ## bdf_map.c:285:5
	callq	_skip_space
Ltmp55:
	.loc	1 279 3 is_stmt 1       ## bdf_map.c:279:3
	jmp	LBB2_5
Ltmp56:
LBB2_8:
	.loc	1 287 1                 ## bdf_map.c:287:1
	addq	$32, %rsp
	popq	%rbp
	retq
Ltmp57:
Lfunc_end2:
	.cfi_endproc
                                        ## -- End function
	.p2align	4, 0x90         ## -- Begin function skip_space
_skip_space:                            ## @skip_space
Lfunc_begin3:
	.loc	1 40 0                  ## bdf_map.c:40:0
	.cfi_startproc
## BB#0:
	pushq	%rbp
Lcfi9:
	.cfi_def_cfa_offset 16
Lcfi10:
	.cfi_offset %rbp, -16
	movq	%rsp, %rbp
Lcfi11:
	.cfi_def_cfa_register %rbp
	movq	%rdi, -8(%rbp)
LBB3_1:                                 ## =>This Inner Loop Header: Depth=1
Ltmp58:
	.loc	1 43 12 prologue_end    ## bdf_map.c:43:12
	movq	-8(%rbp), %rax
	.loc	1 43 11 is_stmt 0       ## bdf_map.c:43:11
	movq	(%rax), %rax
	.loc	1 43 10                 ## bdf_map.c:43:10
	movsbl	(%rax), %ecx
	.loc	1 43 14                 ## bdf_map.c:43:14
	cmpl	$0, %ecx
Ltmp59:
	.loc	1 43 10                 ## bdf_map.c:43:10
	jne	LBB3_3
## BB#2:
Ltmp60:
	.loc	1 44 7 is_stmt 1        ## bdf_map.c:44:7
	jmp	LBB3_6
Ltmp61:
LBB3_3:                                 ##   in Loop: Header=BB3_1 Depth=1
	.loc	1 45 12                 ## bdf_map.c:45:12
	movq	-8(%rbp), %rax
	.loc	1 45 11 is_stmt 0       ## bdf_map.c:45:11
	movq	(%rax), %rax
	.loc	1 45 10                 ## bdf_map.c:45:10
	movsbl	(%rax), %ecx
	.loc	1 45 14                 ## bdf_map.c:45:14
	cmpl	$32, %ecx
Ltmp62:
	.loc	1 45 10                 ## bdf_map.c:45:10
	jle	LBB3_5
## BB#4:
Ltmp63:
	.loc	1 46 7 is_stmt 1        ## bdf_map.c:46:7
	jmp	LBB3_6
Ltmp64:
LBB3_5:                                 ##   in Loop: Header=BB3_1 Depth=1
	.loc	1 47 7                  ## bdf_map.c:47:7
	movq	-8(%rbp), %rax
	.loc	1 47 9 is_stmt 0        ## bdf_map.c:47:9
	movq	(%rax), %rcx
	addq	$1, %rcx
	movq	%rcx, (%rax)
Ltmp65:
	.loc	1 41 3 is_stmt 1        ## bdf_map.c:41:3
	jmp	LBB3_1
Ltmp66:
LBB3_6:
	.loc	1 49 1                  ## bdf_map.c:49:1
	popq	%rbp
	retq
Ltmp67:
Lfunc_end3:
	.cfi_endproc
                                        ## -- End function
	.globl	_bf_Map                 ## -- Begin function bf_Map
	.p2align	4, 0x90
_bf_Map:                                ## @bf_Map
Lfunc_begin4:
	.loc	1 290 0                 ## bdf_map.c:290:0
	.cfi_startproc
## BB#0:
	pushq	%rbp
Lcfi12:
	.cfi_def_cfa_offset 16
Lcfi13:
	.cfi_offset %rbp, -16
	movq	%rsp, %rbp
Lcfi14:
	.cfi_def_cfa_register %rbp
	subq	$16, %rsp
	movq	%rdi, -8(%rbp)
	movq	%rsi, -16(%rbp)
Ltmp68:
	.loc	1 291 15 prologue_end   ## bdf_map.c:291:15
	movq	-16(%rbp), %rdi
	.loc	1 291 8 is_stmt 0       ## bdf_map.c:291:8
	callq	_strlen
	.loc	1 291 29                ## bdf_map.c:291:29
	cmpq	$1024, %rax             ## imm = 0x400
Ltmp69:
	.loc	1 291 8                 ## bdf_map.c:291:8
	jae	LBB4_2
## BB#1:
	.loc	1 0 8                   ## bdf_map.c:0:8
	leaq	L_.str.2(%rip), %rsi
Ltmp70:
	.loc	1 292 12 is_stmt 1      ## bdf_map.c:292:12
	movq	-8(%rbp), %rdi
	.loc	1 292 42 is_stmt 0      ## bdf_map.c:292:42
	movq	-16(%rbp), %rdx
	.loc	1 292 5                 ## bdf_map.c:292:5
	movb	$0, %al
	callq	_bf_Log
Ltmp71:
LBB4_2:
	.loc	1 0 5                   ## bdf_map.c:0:5
	leaq	-16(%rbp), %rsi
	.loc	1 293 15 is_stmt 1      ## bdf_map.c:293:15
	movq	-8(%rbp), %rdi
	.loc	1 293 3 is_stmt 0       ## bdf_map.c:293:3
	callq	_bf_map_list
	.loc	1 294 1 is_stmt 1       ## bdf_map.c:294:1
	addq	$16, %rsp
	popq	%rbp
	retq
Ltmp72:
Lfunc_end4:
	.cfi_endproc
                                        ## -- End function
	.globl	_bf_MapFile             ## -- Begin function bf_MapFile
	.p2align	4, 0x90
_bf_MapFile:                            ## @bf_MapFile
Lfunc_begin5:
	.loc	1 297 0                 ## bdf_map.c:297:0
	.cfi_startproc
## BB#0:
	pushq	%rbp
Lcfi15:
	.cfi_def_cfa_offset 16
Lcfi16:
	.cfi_offset %rbp, -16
	movq	%rsp, %rbp
Lcfi17:
	.cfi_def_cfa_register %rbp
	subq	$208, %rsp
	movq	%rdi, -16(%rbp)
	movq	%rsi, -24(%rbp)
Ltmp73:
	.loc	1 301 22 prologue_end   ## bdf_map.c:301:22
	cmpq	$0, -24(%rbp)
Ltmp74:
	.loc	1 301 8 is_stmt 0       ## bdf_map.c:301:8
	jne	LBB5_2
## BB#1:
Ltmp75:
	.loc	1 302 5 is_stmt 1       ## bdf_map.c:302:5
	movl	$1, -4(%rbp)
	jmp	LBB5_11
Ltmp76:
LBB5_2:
	.loc	1 303 8                 ## bdf_map.c:303:8
	movq	-24(%rbp), %rax
	movsbl	(%rax), %ecx
	.loc	1 303 25 is_stmt 0      ## bdf_map.c:303:25
	cmpl	$0, %ecx
Ltmp77:
	.loc	1 303 8                 ## bdf_map.c:303:8
	jne	LBB5_4
## BB#3:
Ltmp78:
	.loc	1 304 5 is_stmt 1       ## bdf_map.c:304:5
	movl	$1, -4(%rbp)
	jmp	LBB5_11
Ltmp79:
LBB5_4:
	.loc	1 0 5 is_stmt 0         ## bdf_map.c:0:5
	leaq	-168(%rbp), %rsi
Ltmp80:
	.loc	1 307 13 is_stmt 1      ## bdf_map.c:307:13
	movq	-24(%rbp), %rdi
	.loc	1 307 8 is_stmt 0       ## bdf_map.c:307:8
	callq	_stat$INODE64
	.loc	1 307 34                ## bdf_map.c:307:34
	cmpl	$0, %eax
Ltmp81:
	.loc	1 307 8                 ## bdf_map.c:307:8
	je	LBB5_6
## BB#5:
Ltmp82:
	.loc	1 308 5 is_stmt 1       ## bdf_map.c:308:5
	movl	$0, -4(%rbp)
	jmp	LBB5_11
Ltmp83:
LBB5_6:
	.loc	1 0 5 is_stmt 0         ## bdf_map.c:0:5
	leaq	L_.str.3(%rip), %rsi
	.loc	1 309 14 is_stmt 1      ## bdf_map.c:309:14
	movq	-24(%rbp), %rdi
	.loc	1 309 8 is_stmt 0       ## bdf_map.c:309:8
	callq	_fopen
	.loc	1 309 6                 ## bdf_map.c:309:6
	movq	%rax, -184(%rbp)
Ltmp84:
	.loc	1 310 11 is_stmt 1      ## bdf_map.c:310:11
	cmpq	$0, -184(%rbp)
Ltmp85:
	.loc	1 310 8 is_stmt 0       ## bdf_map.c:310:8
	jne	LBB5_8
## BB#7:
Ltmp86:
	.loc	1 311 5 is_stmt 1       ## bdf_map.c:311:5
	movl	$0, -4(%rbp)
	jmp	LBB5_11
Ltmp87:
LBB5_8:
	.loc	1 312 18                ## bdf_map.c:312:18
	movq	-72(%rbp), %rax
	.loc	1 312 25 is_stmt 0      ## bdf_map.c:312:25
	addq	$1, %rax
	.loc	1 312 7                 ## bdf_map.c:312:7
	movq	%rax, %rdi
	callq	_malloc
	.loc	1 312 5                 ## bdf_map.c:312:5
	movq	%rax, -176(%rbp)
Ltmp88:
	.loc	1 313 10 is_stmt 1      ## bdf_map.c:313:10
	cmpq	$0, -176(%rbp)
Ltmp89:
	.loc	1 313 8 is_stmt 0       ## bdf_map.c:313:8
	jne	LBB5_10
## BB#9:
Ltmp90:
	.loc	1 314 5 is_stmt 1       ## bdf_map.c:314:5
	movl	$0, -4(%rbp)
	jmp	LBB5_11
Ltmp91:
LBB5_10:
	.loc	1 0 5 is_stmt 0         ## bdf_map.c:0:5
	movl	$1, %eax
	movl	%eax, %edx
	.loc	1 315 9 is_stmt 1       ## bdf_map.c:315:9
	movq	-176(%rbp), %rdi
	.loc	1 315 16 is_stmt 0      ## bdf_map.c:315:16
	movq	-72(%rbp), %rsi
	.loc	1 315 28                ## bdf_map.c:315:28
	movq	-184(%rbp), %rcx
	.loc	1 315 3                 ## bdf_map.c:315:3
	callq	_fread
	.loc	1 316 3 is_stmt 1       ## bdf_map.c:316:3
	movq	-176(%rbp), %rcx
	.loc	1 316 9 is_stmt 0       ## bdf_map.c:316:9
	movq	-72(%rbp), %rdx
	.loc	1 316 18                ## bdf_map.c:316:18
	movb	$0, (%rcx,%rdx)
	.loc	1 317 10 is_stmt 1      ## bdf_map.c:317:10
	movq	-184(%rbp), %rdi
	.loc	1 317 3 is_stmt 0       ## bdf_map.c:317:3
	movq	%rax, -192(%rbp)        ## 8-byte Spill
	callq	_fclose
	.loc	1 318 10 is_stmt 1      ## bdf_map.c:318:10
	movq	-16(%rbp), %rdi
	.loc	1 318 14 is_stmt 0      ## bdf_map.c:318:14
	movq	-176(%rbp), %rsi
	.loc	1 318 3                 ## bdf_map.c:318:3
	movl	%eax, -196(%rbp)        ## 4-byte Spill
	callq	_bf_Map
	.loc	1 319 8 is_stmt 1       ## bdf_map.c:319:8
	movq	-176(%rbp), %rdi
	.loc	1 319 3 is_stmt 0       ## bdf_map.c:319:3
	callq	_free
	.loc	1 320 3 is_stmt 1       ## bdf_map.c:320:3
	movl	$1, -4(%rbp)
LBB5_11:
	.loc	1 321 1                 ## bdf_map.c:321:1
	movl	-4(%rbp), %eax
	addq	$208, %rsp
	popq	%rbp
	retq
Ltmp92:
Lfunc_end5:
	.cfi_endproc
                                        ## -- End function
	.p2align	4, 0x90         ## -- Begin function get_range
_get_range:                             ## @get_range
Lfunc_begin6:
	.loc	1 157 0                 ## bdf_map.c:157:0
	.cfi_startproc
## BB#0:
	pushq	%rbp
Lcfi18:
	.cfi_def_cfa_offset 16
Lcfi19:
	.cfi_offset %rbp, -16
	movq	%rsp, %rbp
Lcfi20:
	.cfi_def_cfa_register %rbp
	subq	$16, %rsp
	movq	%rdi, -8(%rbp)
Ltmp93:
	.loc	1 158 24 prologue_end   ## bdf_map.c:158:24
	movq	-8(%rbp), %rdi
	.loc	1 158 16 is_stmt 0      ## bdf_map.c:158:16
	callq	_get_add
	.loc	1 158 14                ## bdf_map.c:158:14
	movq	%rax, _range_from(%rip)
Ltmp94:
	.loc	1 159 10 is_stmt 1      ## bdf_map.c:159:10
	movq	-8(%rbp), %rax
	.loc	1 159 9 is_stmt 0       ## bdf_map.c:159:9
	movq	(%rax), %rax
	.loc	1 159 8                 ## bdf_map.c:159:8
	movsbl	(%rax), %ecx
	.loc	1 159 12                ## bdf_map.c:159:12
	cmpl	$45, %ecx
Ltmp95:
	.loc	1 159 8                 ## bdf_map.c:159:8
	je	LBB6_2
## BB#1:
Ltmp96:
	.loc	1 161 16 is_stmt 1      ## bdf_map.c:161:16
	movq	_range_from(%rip), %rax
	.loc	1 161 14 is_stmt 0      ## bdf_map.c:161:14
	movq	%rax, _range_to(%rip)
	.loc	1 162 3 is_stmt 1       ## bdf_map.c:162:3
	jmp	LBB6_3
Ltmp97:
LBB6_2:
	.loc	1 165 7                 ## bdf_map.c:165:7
	movq	-8(%rbp), %rax
	.loc	1 165 9 is_stmt 0       ## bdf_map.c:165:9
	movq	(%rax), %rcx
	addq	$1, %rcx
	movq	%rcx, (%rax)
	.loc	1 166 16 is_stmt 1      ## bdf_map.c:166:16
	movq	-8(%rbp), %rdi
	.loc	1 166 5 is_stmt 0       ## bdf_map.c:166:5
	callq	_skip_space
	.loc	1 167 24 is_stmt 1      ## bdf_map.c:167:24
	movq	-8(%rbp), %rdi
	.loc	1 167 16 is_stmt 0      ## bdf_map.c:167:16
	callq	_get_add
	.loc	1 167 14                ## bdf_map.c:167:14
	movq	%rax, _range_to(%rip)
Ltmp98:
LBB6_3:
	.loc	1 169 1 is_stmt 1       ## bdf_map.c:169:1
	addq	$16, %rsp
	popq	%rbp
	retq
Ltmp99:
Lfunc_end6:
	.cfi_endproc
                                        ## -- End function
	.p2align	4, 0x90         ## -- Begin function get_addsub
_get_addsub:                            ## @get_addsub
Lfunc_begin7:
	.loc	1 139 0                 ## bdf_map.c:139:0
	.cfi_startproc
## BB#0:
	pushq	%rbp
Lcfi21:
	.cfi_def_cfa_offset 16
Lcfi22:
	.cfi_offset %rbp, -16
	movq	%rsp, %rbp
Lcfi23:
	.cfi_def_cfa_register %rbp
	subq	$32, %rsp
	movq	%rdi, -8(%rbp)
Ltmp100:
	.loc	1 142 15 prologue_end   ## bdf_map.c:142:15
	movq	-8(%rbp), %rdi
	.loc	1 142 7 is_stmt 0       ## bdf_map.c:142:7
	callq	_get_mul
	.loc	1 142 5                 ## bdf_map.c:142:5
	movq	%rax, -16(%rbp)
LBB7_1:                                 ## =>This Inner Loop Header: Depth=1
	.loc	1 0 5                   ## bdf_map.c:0:5
	movb	$1, %al
	.loc	1 143 14 is_stmt 1      ## bdf_map.c:143:14
	movq	-8(%rbp), %rcx
	.loc	1 143 13 is_stmt 0      ## bdf_map.c:143:13
	movq	(%rcx), %rcx
	.loc	1 143 11                ## bdf_map.c:143:11
	movsbl	(%rcx), %edx
	.loc	1 143 17                ## bdf_map.c:143:17
	cmpl	$43, %edx
	.loc	1 143 24                ## bdf_map.c:143:24
	movb	%al, -21(%rbp)          ## 1-byte Spill
	je	LBB7_3
## BB#2:                                ##   in Loop: Header=BB7_1 Depth=1
	.loc	1 143 30                ## bdf_map.c:143:30
	movq	-8(%rbp), %rax
	.loc	1 143 29                ## bdf_map.c:143:29
	movq	(%rax), %rax
	.loc	1 143 27                ## bdf_map.c:143:27
	movsbl	(%rax), %ecx
	.loc	1 143 33                ## bdf_map.c:143:33
	cmpl	$45, %ecx
	sete	%dl
	movb	%dl, -21(%rbp)          ## 1-byte Spill
LBB7_3:                                 ##   in Loop: Header=BB7_1 Depth=1
	.loc	1 0 33                  ## bdf_map.c:0:33
	movb	-21(%rbp), %al          ## 1-byte Reload
	.loc	1 143 3                 ## bdf_map.c:143:3
	testb	$1, %al
	jne	LBB7_4
	jmp	LBB7_8
LBB7_4:                                 ##   in Loop: Header=BB7_1 Depth=1
Ltmp101:
	.loc	1 145 12 is_stmt 1      ## bdf_map.c:145:12
	movq	-8(%rbp), %rax
	.loc	1 145 11 is_stmt 0      ## bdf_map.c:145:11
	movq	(%rax), %rax
	.loc	1 145 10                ## bdf_map.c:145:10
	movsbl	(%rax), %ecx
	.loc	1 145 8                 ## bdf_map.c:145:8
	movl	%ecx, -20(%rbp)
	.loc	1 146 7 is_stmt 1       ## bdf_map.c:146:7
	movq	-8(%rbp), %rax
	.loc	1 146 9 is_stmt 0       ## bdf_map.c:146:9
	movq	(%rax), %rdx
	addq	$1, %rdx
	movq	%rdx, (%rax)
	.loc	1 147 16 is_stmt 1      ## bdf_map.c:147:16
	movq	-8(%rbp), %rdi
	.loc	1 147 5 is_stmt 0       ## bdf_map.c:147:5
	callq	_skip_space
Ltmp102:
	.loc	1 148 13 is_stmt 1      ## bdf_map.c:148:13
	cmpl	$43, -20(%rbp)
Ltmp103:
	.loc	1 148 10 is_stmt 0      ## bdf_map.c:148:10
	jne	LBB7_6
## BB#5:                                ##   in Loop: Header=BB7_1 Depth=1
Ltmp104:
	.loc	1 149 20 is_stmt 1      ## bdf_map.c:149:20
	movq	-8(%rbp), %rdi
	.loc	1 149 12 is_stmt 0      ## bdf_map.c:149:12
	callq	_get_mul
	.loc	1 149 9                 ## bdf_map.c:149:9
	addq	-16(%rbp), %rax
	movq	%rax, -16(%rbp)
	.loc	1 149 7                 ## bdf_map.c:149:7
	jmp	LBB7_7
LBB7_6:                                 ##   in Loop: Header=BB7_1 Depth=1
	.loc	1 151 20 is_stmt 1      ## bdf_map.c:151:20
	movq	-8(%rbp), %rdi
	.loc	1 151 12 is_stmt 0      ## bdf_map.c:151:12
	callq	_get_mul
	.loc	1 151 9                 ## bdf_map.c:151:9
	movq	-16(%rbp), %rdi
	subq	%rax, %rdi
	movq	%rdi, -16(%rbp)
Ltmp105:
LBB7_7:                                 ##   in Loop: Header=BB7_1 Depth=1
	.loc	1 143 3 is_stmt 1       ## bdf_map.c:143:3
	jmp	LBB7_1
LBB7_8:
	.loc	1 153 10                ## bdf_map.c:153:10
	movq	-16(%rbp), %rax
	.loc	1 153 3 is_stmt 0       ## bdf_map.c:153:3
	addq	$32, %rsp
	popq	%rbp
	retq
Ltmp106:
Lfunc_end7:
	.cfi_endproc
                                        ## -- End function
	.p2align	4, 0x90         ## -- Begin function get_add
_get_add:                               ## @get_add
Lfunc_begin8:
	.loc	1 126 0 is_stmt 1       ## bdf_map.c:126:0
	.cfi_startproc
## BB#0:
	pushq	%rbp
Lcfi24:
	.cfi_def_cfa_offset 16
Lcfi25:
	.cfi_offset %rbp, -16
	movq	%rsp, %rbp
Lcfi26:
	.cfi_def_cfa_register %rbp
	subq	$16, %rsp
	movq	%rdi, -8(%rbp)
Ltmp107:
	.loc	1 128 15 prologue_end   ## bdf_map.c:128:15
	movq	-8(%rbp), %rdi
	.loc	1 128 7 is_stmt 0       ## bdf_map.c:128:7
	callq	_get_mul
	.loc	1 128 5                 ## bdf_map.c:128:5
	movq	%rax, -16(%rbp)
LBB8_1:                                 ## =>This Inner Loop Header: Depth=1
	.loc	1 129 14 is_stmt 1      ## bdf_map.c:129:14
	movq	-8(%rbp), %rax
	.loc	1 129 13 is_stmt 0      ## bdf_map.c:129:13
	movq	(%rax), %rax
	.loc	1 129 11                ## bdf_map.c:129:11
	movsbl	(%rax), %ecx
	.loc	1 129 17                ## bdf_map.c:129:17
	cmpl	$43, %ecx
	.loc	1 129 3                 ## bdf_map.c:129:3
	jne	LBB8_3
## BB#2:                                ##   in Loop: Header=BB8_1 Depth=1
Ltmp108:
	.loc	1 131 7 is_stmt 1       ## bdf_map.c:131:7
	movq	-8(%rbp), %rax
	.loc	1 131 9 is_stmt 0       ## bdf_map.c:131:9
	movq	(%rax), %rcx
	addq	$1, %rcx
	movq	%rcx, (%rax)
	.loc	1 132 16 is_stmt 1      ## bdf_map.c:132:16
	movq	-8(%rbp), %rdi
	.loc	1 132 5 is_stmt 0       ## bdf_map.c:132:5
	callq	_skip_space
	.loc	1 133 18 is_stmt 1      ## bdf_map.c:133:18
	movq	-8(%rbp), %rdi
	.loc	1 133 10 is_stmt 0      ## bdf_map.c:133:10
	callq	_get_mul
	.loc	1 133 7                 ## bdf_map.c:133:7
	addq	-16(%rbp), %rax
	movq	%rax, -16(%rbp)
Ltmp109:
	.loc	1 129 3 is_stmt 1       ## bdf_map.c:129:3
	jmp	LBB8_1
LBB8_3:
	.loc	1 135 10                ## bdf_map.c:135:10
	movq	-16(%rbp), %rax
	.loc	1 135 3 is_stmt 0       ## bdf_map.c:135:3
	addq	$16, %rsp
	popq	%rbp
	retq
Ltmp110:
Lfunc_end8:
	.cfi_endproc
                                        ## -- End function
	.p2align	4, 0x90         ## -- Begin function get_mul
_get_mul:                               ## @get_mul
Lfunc_begin9:
	.loc	1 113 0 is_stmt 1       ## bdf_map.c:113:0
	.cfi_startproc
## BB#0:
	pushq	%rbp
Lcfi27:
	.cfi_def_cfa_offset 16
Lcfi28:
	.cfi_offset %rbp, -16
	movq	%rsp, %rbp
Lcfi29:
	.cfi_def_cfa_register %rbp
	subq	$16, %rsp
	movq	%rdi, -8(%rbp)
Ltmp111:
	.loc	1 115 15 prologue_end   ## bdf_map.c:115:15
	movq	-8(%rbp), %rdi
	.loc	1 115 7 is_stmt 0       ## bdf_map.c:115:7
	callq	_get_num
	.loc	1 115 5                 ## bdf_map.c:115:5
	movq	%rax, -16(%rbp)
LBB9_1:                                 ## =>This Inner Loop Header: Depth=1
	.loc	1 116 14 is_stmt 1      ## bdf_map.c:116:14
	movq	-8(%rbp), %rax
	.loc	1 116 13 is_stmt 0      ## bdf_map.c:116:13
	movq	(%rax), %rax
	.loc	1 116 11                ## bdf_map.c:116:11
	movsbl	(%rax), %ecx
	.loc	1 116 17                ## bdf_map.c:116:17
	cmpl	$42, %ecx
	.loc	1 116 3                 ## bdf_map.c:116:3
	jne	LBB9_3
## BB#2:                                ##   in Loop: Header=BB9_1 Depth=1
Ltmp112:
	.loc	1 118 7 is_stmt 1       ## bdf_map.c:118:7
	movq	-8(%rbp), %rax
	.loc	1 118 9 is_stmt 0       ## bdf_map.c:118:9
	movq	(%rax), %rcx
	addq	$1, %rcx
	movq	%rcx, (%rax)
	.loc	1 119 16 is_stmt 1      ## bdf_map.c:119:16
	movq	-8(%rbp), %rdi
	.loc	1 119 5 is_stmt 0       ## bdf_map.c:119:5
	callq	_skip_space
	.loc	1 120 18 is_stmt 1      ## bdf_map.c:120:18
	movq	-8(%rbp), %rdi
	.loc	1 120 10 is_stmt 0      ## bdf_map.c:120:10
	callq	_get_num
	.loc	1 120 7                 ## bdf_map.c:120:7
	imulq	-16(%rbp), %rax
	movq	%rax, -16(%rbp)
Ltmp113:
	.loc	1 116 3 is_stmt 1       ## bdf_map.c:116:3
	jmp	LBB9_1
LBB9_3:
	.loc	1 122 10                ## bdf_map.c:122:10
	movq	-16(%rbp), %rax
	.loc	1 122 3 is_stmt 0       ## bdf_map.c:122:3
	addq	$16, %rsp
	popq	%rbp
	retq
Ltmp114:
Lfunc_end9:
	.cfi_endproc
                                        ## -- End function
	.p2align	4, 0x90         ## -- Begin function get_num
_get_num:                               ## @get_num
Lfunc_begin10:
	.loc	1 104 0 is_stmt 1       ## bdf_map.c:104:0
	.cfi_startproc
## BB#0:
	pushq	%rbp
Lcfi30:
	.cfi_def_cfa_offset 16
Lcfi31:
	.cfi_offset %rbp, -16
	movq	%rsp, %rbp
Lcfi32:
	.cfi_def_cfa_register %rbp
	subq	$16, %rsp
	movq	%rdi, -16(%rbp)
Ltmp115:
	.loc	1 105 11 prologue_end   ## bdf_map.c:105:11
	movq	-16(%rbp), %rdi
	.loc	1 105 10 is_stmt 0      ## bdf_map.c:105:10
	movq	(%rdi), %rdi
	.loc	1 105 8                 ## bdf_map.c:105:8
	movsbl	(%rdi), %eax
	.loc	1 105 14                ## bdf_map.c:105:14
	cmpl	$36, %eax
Ltmp116:
	.loc	1 105 8                 ## bdf_map.c:105:8
	je	LBB10_2
## BB#1:
Ltmp117:
	.loc	1 106 20 is_stmt 1      ## bdf_map.c:106:20
	movq	-16(%rbp), %rdi
	.loc	1 106 12 is_stmt 0      ## bdf_map.c:106:12
	callq	_get_dec
	.loc	1 106 5                 ## bdf_map.c:106:5
	movq	%rax, -8(%rbp)
	jmp	LBB10_3
Ltmp118:
LBB10_2:
	.loc	1 107 5 is_stmt 1       ## bdf_map.c:107:5
	movq	-16(%rbp), %rax
	.loc	1 107 7 is_stmt 0       ## bdf_map.c:107:7
	movq	(%rax), %rcx
	addq	$1, %rcx
	movq	%rcx, (%rax)
	.loc	1 108 14 is_stmt 1      ## bdf_map.c:108:14
	movq	-16(%rbp), %rdi
	.loc	1 108 3 is_stmt 0       ## bdf_map.c:108:3
	callq	_skip_space
	.loc	1 109 18 is_stmt 1      ## bdf_map.c:109:18
	movq	-16(%rbp), %rdi
	.loc	1 109 10 is_stmt 0      ## bdf_map.c:109:10
	callq	_get_hex
	.loc	1 109 3                 ## bdf_map.c:109:3
	movq	%rax, -8(%rbp)
LBB10_3:
	.loc	1 110 1 is_stmt 1       ## bdf_map.c:110:1
	movq	-8(%rbp), %rax
	addq	$16, %rsp
	popq	%rbp
	retq
Ltmp119:
Lfunc_end10:
	.cfi_endproc
                                        ## -- End function
	.p2align	4, 0x90         ## -- Begin function get_dec
_get_dec:                               ## @get_dec
Lfunc_begin11:
	.loc	1 52 0                  ## bdf_map.c:52:0
	.cfi_startproc
## BB#0:
	pushq	%rbp
Lcfi33:
	.cfi_def_cfa_offset 16
Lcfi34:
	.cfi_offset %rbp, -16
	movq	%rsp, %rbp
Lcfi35:
	.cfi_def_cfa_register %rbp
	subq	$16, %rsp
	movq	%rdi, -8(%rbp)
Ltmp120:
	.loc	1 53 8 prologue_end     ## bdf_map.c:53:8
	movq	$0, -16(%rbp)
LBB11_1:                                ## =>This Inner Loop Header: Depth=1
Ltmp121:
	.loc	1 56 13                 ## bdf_map.c:56:13
	movq	-8(%rbp), %rax
	.loc	1 56 12 is_stmt 0       ## bdf_map.c:56:12
	movq	(%rax), %rax
	.loc	1 56 10                 ## bdf_map.c:56:10
	movsbl	(%rax), %ecx
	.loc	1 56 16                 ## bdf_map.c:56:16
	cmpl	$48, %ecx
	.loc	1 56 23                 ## bdf_map.c:56:23
	jl	LBB11_4
## BB#2:                                ##   in Loop: Header=BB11_1 Depth=1
	.loc	1 56 29                 ## bdf_map.c:56:29
	movq	-8(%rbp), %rax
	.loc	1 56 28                 ## bdf_map.c:56:28
	movq	(%rax), %rax
	.loc	1 56 26                 ## bdf_map.c:56:26
	movsbl	(%rax), %ecx
	.loc	1 56 33                 ## bdf_map.c:56:33
	cmpl	$57, %ecx
Ltmp122:
	.loc	1 56 10                 ## bdf_map.c:56:10
	jg	LBB11_4
## BB#3:                                ##   in Loop: Header=BB11_1 Depth=1
Ltmp123:
	.loc	1 58 8 is_stmt 1        ## bdf_map.c:58:8
	imulq	$10, -16(%rbp), %rax
	movq	%rax, -16(%rbp)
	.loc	1 59 14                 ## bdf_map.c:59:14
	movq	-8(%rbp), %rax
	.loc	1 59 13 is_stmt 0       ## bdf_map.c:59:13
	movq	(%rax), %rax
	.loc	1 59 11                 ## bdf_map.c:59:11
	movsbl	(%rax), %ecx
	.loc	1 59 16                 ## bdf_map.c:59:16
	subl	$48, %ecx
	.loc	1 59 11                 ## bdf_map.c:59:11
	movslq	%ecx, %rax
	.loc	1 59 8                  ## bdf_map.c:59:8
	addq	-16(%rbp), %rax
	movq	%rax, -16(%rbp)
	.loc	1 60 9 is_stmt 1        ## bdf_map.c:60:9
	movq	-8(%rbp), %rax
	.loc	1 60 11 is_stmt 0       ## bdf_map.c:60:11
	movq	(%rax), %rdx
	addq	$1, %rdx
	movq	%rdx, (%rax)
	.loc	1 61 5 is_stmt 1        ## bdf_map.c:61:5
	jmp	LBB11_5
Ltmp124:
LBB11_4:
	.loc	1 64 7                  ## bdf_map.c:64:7
	jmp	LBB11_6
Ltmp125:
LBB11_5:                                ##   in Loop: Header=BB11_1 Depth=1
	.loc	1 54 3                  ## bdf_map.c:54:3
	jmp	LBB11_1
Ltmp126:
LBB11_6:
	.loc	1 67 14                 ## bdf_map.c:67:14
	movq	-8(%rbp), %rdi
	.loc	1 67 3 is_stmt 0        ## bdf_map.c:67:3
	callq	_skip_space
	.loc	1 68 10 is_stmt 1       ## bdf_map.c:68:10
	movq	-16(%rbp), %rax
	.loc	1 68 3 is_stmt 0        ## bdf_map.c:68:3
	addq	$16, %rsp
	popq	%rbp
	retq
Ltmp127:
Lfunc_end11:
	.cfi_endproc
                                        ## -- End function
	.p2align	4, 0x90         ## -- Begin function get_hex
_get_hex:                               ## @get_hex
Lfunc_begin12:
	.loc	1 72 0 is_stmt 1        ## bdf_map.c:72:0
	.cfi_startproc
## BB#0:
	pushq	%rbp
Lcfi36:
	.cfi_def_cfa_offset 16
Lcfi37:
	.cfi_offset %rbp, -16
	movq	%rsp, %rbp
Lcfi38:
	.cfi_def_cfa_register %rbp
	subq	$16, %rsp
	movq	%rdi, -8(%rbp)
Ltmp128:
	.loc	1 73 8 prologue_end     ## bdf_map.c:73:8
	movq	$0, -16(%rbp)
LBB12_1:                                ## =>This Inner Loop Header: Depth=1
Ltmp129:
	.loc	1 76 13                 ## bdf_map.c:76:13
	movq	-8(%rbp), %rax
	.loc	1 76 12 is_stmt 0       ## bdf_map.c:76:12
	movq	(%rax), %rax
	.loc	1 76 10                 ## bdf_map.c:76:10
	movsbl	(%rax), %ecx
	.loc	1 76 16                 ## bdf_map.c:76:16
	cmpl	$48, %ecx
	.loc	1 76 23                 ## bdf_map.c:76:23
	jl	LBB12_4
## BB#2:                                ##   in Loop: Header=BB12_1 Depth=1
	.loc	1 76 29                 ## bdf_map.c:76:29
	movq	-8(%rbp), %rax
	.loc	1 76 28                 ## bdf_map.c:76:28
	movq	(%rax), %rax
	.loc	1 76 26                 ## bdf_map.c:76:26
	movsbl	(%rax), %ecx
	.loc	1 76 33                 ## bdf_map.c:76:33
	cmpl	$57, %ecx
Ltmp130:
	.loc	1 76 10                 ## bdf_map.c:76:10
	jg	LBB12_4
## BB#3:                                ##   in Loop: Header=BB12_1 Depth=1
Ltmp131:
	.loc	1 78 8 is_stmt 1        ## bdf_map.c:78:8
	movq	-16(%rbp), %rax
	shlq	$4, %rax
	movq	%rax, -16(%rbp)
	.loc	1 79 14                 ## bdf_map.c:79:14
	movq	-8(%rbp), %rax
	.loc	1 79 13 is_stmt 0       ## bdf_map.c:79:13
	movq	(%rax), %rax
	.loc	1 79 11                 ## bdf_map.c:79:11
	movsbl	(%rax), %ecx
	.loc	1 79 16                 ## bdf_map.c:79:16
	subl	$48, %ecx
	.loc	1 79 11                 ## bdf_map.c:79:11
	movslq	%ecx, %rax
	.loc	1 79 8                  ## bdf_map.c:79:8
	addq	-16(%rbp), %rax
	movq	%rax, -16(%rbp)
	.loc	1 80 9 is_stmt 1        ## bdf_map.c:80:9
	movq	-8(%rbp), %rax
	.loc	1 80 11 is_stmt 0       ## bdf_map.c:80:11
	movq	(%rax), %rdx
	addq	$1, %rdx
	movq	%rdx, (%rax)
	.loc	1 81 5 is_stmt 1        ## bdf_map.c:81:5
	jmp	LBB12_13
Ltmp132:
LBB12_4:                                ##   in Loop: Header=BB12_1 Depth=1
	.loc	1 82 18                 ## bdf_map.c:82:18
	movq	-8(%rbp), %rax
	.loc	1 82 17 is_stmt 0       ## bdf_map.c:82:17
	movq	(%rax), %rax
	.loc	1 82 15                 ## bdf_map.c:82:15
	movsbl	(%rax), %ecx
	.loc	1 82 21                 ## bdf_map.c:82:21
	cmpl	$97, %ecx
	.loc	1 82 28                 ## bdf_map.c:82:28
	jl	LBB12_7
## BB#5:                                ##   in Loop: Header=BB12_1 Depth=1
	.loc	1 82 34                 ## bdf_map.c:82:34
	movq	-8(%rbp), %rax
	.loc	1 82 33                 ## bdf_map.c:82:33
	movq	(%rax), %rax
	.loc	1 82 31                 ## bdf_map.c:82:31
	movsbl	(%rax), %ecx
	.loc	1 82 38                 ## bdf_map.c:82:38
	cmpl	$102, %ecx
Ltmp133:
	.loc	1 82 15                 ## bdf_map.c:82:15
	jg	LBB12_7
## BB#6:                                ##   in Loop: Header=BB12_1 Depth=1
Ltmp134:
	.loc	1 84 8 is_stmt 1        ## bdf_map.c:84:8
	movq	-16(%rbp), %rax
	shlq	$4, %rax
	movq	%rax, -16(%rbp)
	.loc	1 85 14                 ## bdf_map.c:85:14
	movq	-8(%rbp), %rax
	.loc	1 85 13 is_stmt 0       ## bdf_map.c:85:13
	movq	(%rax), %rax
	.loc	1 85 11                 ## bdf_map.c:85:11
	movsbl	(%rax), %ecx
	.loc	1 85 16                 ## bdf_map.c:85:16
	subl	$97, %ecx
	.loc	1 85 20                 ## bdf_map.c:85:20
	addl	$10, %ecx
	.loc	1 85 11                 ## bdf_map.c:85:11
	movslq	%ecx, %rax
	.loc	1 85 8                  ## bdf_map.c:85:8
	addq	-16(%rbp), %rax
	movq	%rax, -16(%rbp)
	.loc	1 86 9 is_stmt 1        ## bdf_map.c:86:9
	movq	-8(%rbp), %rax
	.loc	1 86 11 is_stmt 0       ## bdf_map.c:86:11
	movq	(%rax), %rdx
	addq	$1, %rdx
	movq	%rdx, (%rax)
	.loc	1 87 5 is_stmt 1        ## bdf_map.c:87:5
	jmp	LBB12_12
Ltmp135:
LBB12_7:                                ##   in Loop: Header=BB12_1 Depth=1
	.loc	1 88 18                 ## bdf_map.c:88:18
	movq	-8(%rbp), %rax
	.loc	1 88 17 is_stmt 0       ## bdf_map.c:88:17
	movq	(%rax), %rax
	.loc	1 88 15                 ## bdf_map.c:88:15
	movsbl	(%rax), %ecx
	.loc	1 88 21                 ## bdf_map.c:88:21
	cmpl	$65, %ecx
	.loc	1 88 28                 ## bdf_map.c:88:28
	jl	LBB12_10
## BB#8:                                ##   in Loop: Header=BB12_1 Depth=1
	.loc	1 88 34                 ## bdf_map.c:88:34
	movq	-8(%rbp), %rax
	.loc	1 88 33                 ## bdf_map.c:88:33
	movq	(%rax), %rax
	.loc	1 88 31                 ## bdf_map.c:88:31
	movsbl	(%rax), %ecx
	.loc	1 88 38                 ## bdf_map.c:88:38
	cmpl	$70, %ecx
Ltmp136:
	.loc	1 88 15                 ## bdf_map.c:88:15
	jg	LBB12_10
## BB#9:                                ##   in Loop: Header=BB12_1 Depth=1
Ltmp137:
	.loc	1 90 8 is_stmt 1        ## bdf_map.c:90:8
	movq	-16(%rbp), %rax
	shlq	$4, %rax
	movq	%rax, -16(%rbp)
	.loc	1 91 14                 ## bdf_map.c:91:14
	movq	-8(%rbp), %rax
	.loc	1 91 13 is_stmt 0       ## bdf_map.c:91:13
	movq	(%rax), %rax
	.loc	1 91 11                 ## bdf_map.c:91:11
	movsbl	(%rax), %ecx
	.loc	1 91 16                 ## bdf_map.c:91:16
	subl	$65, %ecx
	.loc	1 91 20                 ## bdf_map.c:91:20
	addl	$10, %ecx
	.loc	1 91 11                 ## bdf_map.c:91:11
	movslq	%ecx, %rax
	.loc	1 91 8                  ## bdf_map.c:91:8
	addq	-16(%rbp), %rax
	movq	%rax, -16(%rbp)
	.loc	1 92 9 is_stmt 1        ## bdf_map.c:92:9
	movq	-8(%rbp), %rax
	.loc	1 92 11 is_stmt 0       ## bdf_map.c:92:11
	movq	(%rax), %rdx
	addq	$1, %rdx
	movq	%rdx, (%rax)
	.loc	1 93 5 is_stmt 1        ## bdf_map.c:93:5
	jmp	LBB12_11
Ltmp138:
LBB12_10:
	.loc	1 96 7                  ## bdf_map.c:96:7
	jmp	LBB12_14
Ltmp139:
LBB12_11:                               ##   in Loop: Header=BB12_1 Depth=1
	.loc	1 0 7 is_stmt 0         ## bdf_map.c:0:7
	jmp	LBB12_12
LBB12_12:                               ##   in Loop: Header=BB12_1 Depth=1
	jmp	LBB12_13
LBB12_13:                               ##   in Loop: Header=BB12_1 Depth=1
	.loc	1 74 3 is_stmt 1        ## bdf_map.c:74:3
	jmp	LBB12_1
Ltmp140:
LBB12_14:
	.loc	1 99 14                 ## bdf_map.c:99:14
	movq	-8(%rbp), %rdi
	.loc	1 99 3 is_stmt 0        ## bdf_map.c:99:3
	callq	_skip_space
	.loc	1 100 10 is_stmt 1      ## bdf_map.c:100:10
	movq	-16(%rbp), %rax
	.loc	1 100 3 is_stmt 0       ## bdf_map.c:100:3
	addq	$16, %rsp
	popq	%rbp
	retq
Ltmp141:
Lfunc_end12:
	.cfi_endproc
                                        ## -- End function
.zerofill __DATA,__bss,_bf_map_cmd.is_log_disabled_for_single_glyphs,4,2 ## @bf_map_cmd.is_log_disabled_for_single_glyphs
.zerofill __DATA,__bss,_range_from,8,3  ## @range_from
.zerofill __DATA,__bss,_range_to,8,3    ## @range_to
	.section	__TEXT,__cstring,cstring_literals
L_.str:                                 ## @.str
	.asciz	"Map: exclude=%d from=%ld/$%lx to=%ld/$%lx map=%ld/$%lx"

.zerofill __DATA,__bss,_is_exclude,4,2  ## @is_exclude
.zerofill __DATA,__bss,_map_to,8,3      ## @map_to
L_.str.1:                               ## @.str.1
	.asciz	"Map: exclude=%d from=%ld/$%lx to=%ld/$%lx map=%ld/$%lx (further single glyph logs disabled)"

.zerofill __DATA,__bss,_is_kern_exclude,4,2 ## @is_kern_exclude
L_.str.2:                               ## @.str.2
	.asciz	"Map: map_cmd_list='%s'"

L_.str.3:                               ## @.str.3
	.asciz	"r"

	.file	2 "." "bdf_font.h"
	.file	3 "." "bdf_glyph.h"
	.file	4 "/usr/include/_types" "_uint8_t.h"
	.file	5 "/usr/include" "_stdio.h"
	.file	6 "/usr/include/i386" "_types.h"
	.file	7 "/usr/include/sys" "_types.h"
	.file	8 "/usr/include/sys/_types" "_dev_t.h"
	.file	9 "/usr/include/sys" "stat.h"
	.file	10 "/usr/include/sys/_types" "_mode_t.h"
	.file	11 "/usr/include/sys/_types" "_nlink_t.h"
	.file	12 "/usr/include/sys/_types" "_uid_t.h"
	.file	13 "/usr/include/sys/_types" "_gid_t.h"
	.file	14 "/usr/include/sys/_types" "_timespec.h"
	.file	15 "/usr/include/sys/_types" "_off_t.h"
	.file	16 "/usr/include/sys/_types" "_blkcnt_t.h"
	.file	17 "/usr/include/sys/_types" "_blksize_t.h"