	.section	__TEXT,__text,regular,pure_instructions
	.macosx_version_min 10, 13
	.file	1 "main.c"
	.globl	_get_str_arg            ## -- Begin function get_str_arg
	.p2align	4, 0x90
_get_str_arg:                           ## @get_str_arg
Lfunc_begin0:
	.loc	1 46 0                  ## main.c:46:0
	.cfi_startproc
## BB#0:
	pushq	%rbp
Lcfi0:
	.cfi_def_cfa_offset 16
Lcfi1:
	.cfi_offset %rbp, -16
	movq	%rsp, %rbp
Lcfi2:
	.cfi_def_cfa_register %rbp
	movq	%rdi, -16(%rbp)
	movl	%esi, -20(%rbp)
	movq	%rdx, -32(%rbp)
Ltmp0:
	.loc	1 47 11 prologue_end    ## main.c:47:11
	movq	-16(%rbp), %rdx
	.loc	1 47 10 is_stmt 0       ## main.c:47:10
	movq	(%rdx), %rdx
	.loc	1 47 9                  ## main.c:47:9
	movq	(%rdx), %rdx
	.loc	1 47 8                  ## main.c:47:8
	movsbl	(%rdx), %esi
	.loc	1 47 20                 ## main.c:47:20
	cmpl	$45, %esi
Ltmp1:
	.loc	1 47 8                  ## main.c:47:8
	jne	LBB0_7
## BB#1:
Ltmp2:
	.loc	1 49 13 is_stmt 1       ## main.c:49:13
	movq	-16(%rbp), %rax
	.loc	1 49 12 is_stmt 0       ## main.c:49:12
	movq	(%rax), %rax
	.loc	1 49 11                 ## main.c:49:11
	movq	(%rax), %rax
	.loc	1 49 10                 ## main.c:49:10
	movsbl	1(%rax), %ecx
	.loc	1 49 22                 ## main.c:49:22
	cmpl	-20(%rbp), %ecx
Ltmp3:
	.loc	1 49 10                 ## main.c:49:10
	jne	LBB0_6
## BB#2:
Ltmp4:
	.loc	1 51 15 is_stmt 1       ## main.c:51:15
	movq	-16(%rbp), %rax
	.loc	1 51 14 is_stmt 0       ## main.c:51:14
	movq	(%rax), %rax
	.loc	1 51 13                 ## main.c:51:13
	movq	(%rax), %rax
	.loc	1 51 12                 ## main.c:51:12
	movsbl	2(%rax), %ecx
	.loc	1 51 24                 ## main.c:51:24
	cmpl	$0, %ecx
Ltmp5:
	.loc	1 51 12                 ## main.c:51:12
	jne	LBB0_4
## BB#3:
Ltmp6:
	.loc	1 53 4 is_stmt 1        ## main.c:53:4
	movq	-16(%rbp), %rax
	.loc	1 53 9 is_stmt 0        ## main.c:53:9
	movq	(%rax), %rcx
	addq	$8, %rcx
	movq	%rcx, (%rax)
	.loc	1 54 14 is_stmt 1       ## main.c:54:14
	movq	-16(%rbp), %rax
	.loc	1 54 13 is_stmt 0       ## main.c:54:13
	movq	(%rax), %rax
	.loc	1 54 12                 ## main.c:54:12
	movq	(%rax), %rax
	.loc	1 54 3                  ## main.c:54:3
	movq	-32(%rbp), %rcx
	.loc	1 54 10                 ## main.c:54:10
	movq	%rax, (%rcx)
	.loc	1 55 7 is_stmt 1        ## main.c:55:7
	jmp	LBB0_5
Ltmp7:
LBB0_4:
	.loc	1 58 15                 ## main.c:58:15
	movq	-16(%rbp), %rax
	.loc	1 58 14 is_stmt 0       ## main.c:58:14
	movq	(%rax), %rax
	.loc	1 58 13                 ## main.c:58:13
	movq	(%rax), %rax
	.loc	1 58 20                 ## main.c:58:20
	addq	$2, %rax
	.loc	1 58 3                  ## main.c:58:3
	movq	-32(%rbp), %rcx
	.loc	1 58 10                 ## main.c:58:10
	movq	%rax, (%rcx)
Ltmp8:
LBB0_5:
	.loc	1 60 9 is_stmt 1        ## main.c:60:9
	movq	-16(%rbp), %rax
	.loc	1 60 14 is_stmt 0       ## main.c:60:14
	movq	(%rax), %rcx
	addq	$8, %rcx
	movq	%rcx, (%rax)
	.loc	1 61 7 is_stmt 1        ## main.c:61:7
	movl	$1, -4(%rbp)
	jmp	LBB0_8
Ltmp9:
LBB0_6:
	.loc	1 63 3                  ## main.c:63:3
	jmp	LBB0_7
Ltmp10:
LBB0_7:
	.loc	1 64 3                  ## main.c:64:3
	movl	$0, -4(%rbp)
LBB0_8:
	.loc	1 65 1                  ## main.c:65:1
	movl	-4(%rbp), %eax
	popq	%rbp
	retq
Ltmp11:
Lfunc_end0:
	.cfi_endproc
                                        ## -- End function
	.globl	_get_num_arg            ## -- Begin function get_num_arg
	.p2align	4, 0x90
_get_num_arg:                           ## @get_num_arg
Lfunc_begin1:
	.loc	1 69 0                  ## main.c:69:0
	.cfi_startproc
## BB#0:
	pushq	%rbp
Lcfi3:
	.cfi_def_cfa_offset 16
Lcfi4:
	.cfi_offset %rbp, -16
	movq	%rsp, %rbp
Lcfi5:
	.cfi_def_cfa_register %rbp
	subq	$32, %rsp
	movq	%rdi, -16(%rbp)
	movl	%esi, -20(%rbp)
	movq	%rdx, -32(%rbp)
Ltmp12:
	.loc	1 70 11 prologue_end    ## main.c:70:11
	movq	-16(%rbp), %rdx
	.loc	1 70 10 is_stmt 0       ## main.c:70:10
	movq	(%rdx), %rdx
	.loc	1 70 9                  ## main.c:70:9
	movq	(%rdx), %rdx
	.loc	1 70 8                  ## main.c:70:8
	movsbl	(%rdx), %esi
	.loc	1 70 20                 ## main.c:70:20
	cmpl	$45, %esi
Ltmp13:
	.loc	1 70 8                  ## main.c:70:8
	jne	LBB1_9
## BB#1:
Ltmp14:
	.loc	1 72 13 is_stmt 1       ## main.c:72:13
	movq	-16(%rbp), %rax
	.loc	1 72 12 is_stmt 0       ## main.c:72:12
	movq	(%rax), %rax
	.loc	1 72 11                 ## main.c:72:11
	movq	(%rax), %rax
	.loc	1 72 10                 ## main.c:72:10
	movsbl	1(%rax), %ecx
	.loc	1 72 22                 ## main.c:72:22
	cmpl	-20(%rbp), %ecx
Ltmp15:
	.loc	1 72 10                 ## main.c:72:10
	jne	LBB1_8
## BB#2:
Ltmp16:
	.loc	1 75 15 is_stmt 1       ## main.c:75:15
	movq	-16(%rbp), %rax
	.loc	1 75 14 is_stmt 0       ## main.c:75:14
	movq	(%rax), %rax
	.loc	1 75 13                 ## main.c:75:13
	movq	(%rax), %rax
	.loc	1 75 12                 ## main.c:75:12
	movsbl	2(%rax), %ecx
	.loc	1 75 24                 ## main.c:75:24
	cmpl	$0, %ecx
Ltmp17:
	.loc	1 75 12                 ## main.c:75:12
	jne	LBB1_6
## BB#3:
Ltmp18:
	.loc	1 77 11 is_stmt 1       ## main.c:77:11
	movq	-16(%rbp), %rax
	.loc	1 77 10 is_stmt 0       ## main.c:77:10
	movq	(%rax), %rax
	.loc	1 77 20                 ## main.c:77:20
	cmpq	$0, 8(%rax)
Ltmp19:
	.loc	1 77 7                  ## main.c:77:7
	je	LBB1_5
## BB#4:
	.loc	1 0 7                   ## main.c:0:7
	xorl	%eax, %eax
	movl	%eax, %esi
	movl	$10, %edx
Ltmp20:
	.loc	1 79 6 is_stmt 1        ## main.c:79:6
	movq	-16(%rbp), %rcx
	.loc	1 79 11 is_stmt 0       ## main.c:79:11
	movq	(%rcx), %rdi
	addq	$8, %rdi
	movq	%rdi, (%rcx)
	.loc	1 80 25 is_stmt 1       ## main.c:80:25
	movq	-16(%rbp), %rcx
	.loc	1 80 24 is_stmt 0       ## main.c:80:24
	movq	(%rcx), %rcx
	.loc	1 80 23                 ## main.c:80:23
	movq	(%rcx), %rdi
	.loc	1 80 14                 ## main.c:80:14
	callq	_strtoul
	.loc	1 80 5                  ## main.c:80:5
	movq	-32(%rbp), %rcx
	.loc	1 80 12                 ## main.c:80:12
	movq	%rax, (%rcx)
Ltmp21:
LBB1_5:
	.loc	1 82 7 is_stmt 1        ## main.c:82:7
	jmp	LBB1_7
Ltmp22:
LBB1_6:
	.loc	1 0 7 is_stmt 0         ## main.c:0:7
	xorl	%eax, %eax
	movl	%eax, %esi
	movl	$10, %edx
Ltmp23:
	.loc	1 85 23 is_stmt 1       ## main.c:85:23
	movq	-16(%rbp), %rcx
	.loc	1 85 22 is_stmt 0       ## main.c:85:22
	movq	(%rcx), %rcx
	.loc	1 85 21                 ## main.c:85:21
	movq	(%rcx), %rcx
	.loc	1 85 28                 ## main.c:85:28
	addq	$2, %rcx
	.loc	1 85 12                 ## main.c:85:12
	movq	%rcx, %rdi
	callq	_strtoul
	.loc	1 85 3                  ## main.c:85:3
	movq	-32(%rbp), %rcx
	.loc	1 85 10                 ## main.c:85:10
	movq	%rax, (%rcx)
Ltmp24:
LBB1_7:
	.loc	1 87 9 is_stmt 1        ## main.c:87:9
	movq	-16(%rbp), %rax
	.loc	1 87 14 is_stmt 0       ## main.c:87:14
	movq	(%rax), %rcx
	addq	$8, %rcx
	movq	%rcx, (%rax)
	.loc	1 88 7 is_stmt 1        ## main.c:88:7
	movl	$1, -4(%rbp)
	jmp	LBB1_10
Ltmp25:
LBB1_8:
	.loc	1 90 3                  ## main.c:90:3
	jmp	LBB1_9
Ltmp26:
LBB1_9:
	.loc	1 91 3                  ## main.c:91:3
	movl	$0, -4(%rbp)
LBB1_10:
	.loc	1 92 1                  ## main.c:92:1
	movl	-4(%rbp), %eax
	addq	$32, %rsp
	popq	%rbp
	retq
Ltmp27:
Lfunc_end1:
	.cfi_endproc
                                        ## -- End function
	.globl	_is_arg                 ## -- Begin function is_arg
	.p2align	4, 0x90
_is_arg:                                ## @is_arg
Lfunc_begin2:
	.loc	1 95 0                  ## main.c:95:0
	.cfi_startproc
## BB#0:
	pushq	%rbp
Lcfi6:
	.cfi_def_cfa_offset 16
Lcfi7:
	.cfi_offset %rbp, -16
	movq	%rsp, %rbp
Lcfi8:
	.cfi_def_cfa_register %rbp
	movq	%rdi, -16(%rbp)
	movl	%esi, -20(%rbp)
Ltmp28:
	.loc	1 96 11 prologue_end    ## main.c:96:11
	movq	-16(%rbp), %rdi
	.loc	1 96 10 is_stmt 0       ## main.c:96:10
	movq	(%rdi), %rdi
	.loc	1 96 9                  ## main.c:96:9
	movq	(%rdi), %rdi
	.loc	1 96 8                  ## main.c:96:8
	movsbl	(%rdi), %esi
	.loc	1 96 20                 ## main.c:96:20
	cmpl	$45, %esi
Ltmp29:
	.loc	1 96 8                  ## main.c:96:8
	jne	LBB2_4
## BB#1:
Ltmp30:
	.loc	1 98 13 is_stmt 1       ## main.c:98:13
	movq	-16(%rbp), %rax
	.loc	1 98 12 is_stmt 0       ## main.c:98:12
	movq	(%rax), %rax
	.loc	1 98 11                 ## main.c:98:11
	movq	(%rax), %rax
	.loc	1 98 10                 ## main.c:98:10
	movsbl	1(%rax), %ecx
	.loc	1 98 22                 ## main.c:98:22
	cmpl	-20(%rbp), %ecx
Ltmp31:
	.loc	1 98 10                 ## main.c:98:10
	jne	LBB2_3
## BB#2:
Ltmp32:
	.loc	1 100 9 is_stmt 1       ## main.c:100:9
	movq	-16(%rbp), %rax
	.loc	1 100 14 is_stmt 0      ## main.c:100:14
	movq	(%rax), %rcx
	addq	$8, %rcx
	movq	%rcx, (%rax)
	.loc	1 101 7 is_stmt 1       ## main.c:101:7
	movl	$1, -4(%rbp)
	jmp	LBB2_5
Ltmp33:
LBB2_3:
	.loc	1 103 3                 ## main.c:103:3
	jmp	LBB2_4
Ltmp34:
LBB2_4:
	.loc	1 104 3                 ## main.c:104:3
	movl	$0, -4(%rbp)
LBB2_5:
	.loc	1 105 1                 ## main.c:105:1
	movl	-4(%rbp), %eax
	popq	%rbp
	retq
Ltmp35:
Lfunc_end2:
	.cfi_endproc
                                        ## -- End function
	.globl	_help                   ## -- Begin function help
	.p2align	4, 0x90
_help:                                  ## @help
Lfunc_begin3:
	.loc	1 109 0                 ## main.c:109:0
	.cfi_startproc
## BB#0:
	pushq	%rbp
Lcfi9:
	.cfi_def_cfa_offset 16
Lcfi10:
	.cfi_offset %rbp, -16
	movq	%rsp, %rbp
Lcfi11:
	.cfi_def_cfa_register %rbp
	subq	$176, %rsp
	leaq	L_.str(%rip), %rdi
Ltmp36:
	.loc	1 110 3 prologue_end    ## main.c:110:3
	movb	$0, %al
	callq	_printf
	leaq	L_.str.1(%rip), %rdi
	.loc	1 111 3                 ## main.c:111:3
	movl	%eax, -4(%rbp)          ## 4-byte Spill
	movb	$0, %al
	callq	_printf
	leaq	L_.str.2(%rip), %rdi
	.loc	1 112 3                 ## main.c:112:3
	movl	%eax, -8(%rbp)          ## 4-byte Spill
	movb	$0, %al
	callq	_printf
	leaq	L_.str.3(%rip), %rdi
	.loc	1 113 3                 ## main.c:113:3
	movl	%eax, -12(%rbp)         ## 4-byte Spill
	movb	$0, %al
	callq	_printf
	leaq	L_.str.4(%rip), %rdi
	.loc	1 114 3                 ## main.c:114:3
	movl	%eax, -16(%rbp)         ## 4-byte Spill
	movb	$0, %al
	callq	_printf
	leaq	L_.str.5(%rip), %rdi
	.loc	1 115 3                 ## main.c:115:3
	movl	%eax, -20(%rbp)         ## 4-byte Spill
	movb	$0, %al
	callq	_printf
	leaq	L_.str.6(%rip), %rdi
	.loc	1 116 3                 ## main.c:116:3
	movl	%eax, -24(%rbp)         ## 4-byte Spill
	movb	$0, %al
	callq	_printf
	leaq	L_.str.7(%rip), %rdi
	.loc	1 117 3                 ## main.c:117:3
	movl	%eax, -28(%rbp)         ## 4-byte Spill
	movb	$0, %al
	callq	_printf
	leaq	L_.str.8(%rip), %rdi
	.loc	1 118 3                 ## main.c:118:3
	movl	%eax, -32(%rbp)         ## 4-byte Spill
	movb	$0, %al
	callq	_printf
	leaq	L_.str.9(%rip), %rdi
	.loc	1 119 3                 ## main.c:119:3
	movl	%eax, -36(%rbp)         ## 4-byte Spill
	movb	$0, %al
	callq	_printf
	leaq	L_.str.10(%rip), %rdi
	.loc	1 121 3                 ## main.c:121:3
	movl	%eax, -40(%rbp)         ## 4-byte Spill
	movb	$0, %al
	callq	_printf
	leaq	L_.str.11(%rip), %rdi
	.loc	1 122 3                 ## main.c:122:3
	movl	%eax, -44(%rbp)         ## 4-byte Spill
	movb	$0, %al
	callq	_printf
	leaq	L_.str.12(%rip), %rdi
	.loc	1 123 3                 ## main.c:123:3
	movl	%eax, -48(%rbp)         ## 4-byte Spill
	movb	$0, %al
	callq	_printf
	leaq	L_.str.13(%rip), %rdi
	.loc	1 124 3                 ## main.c:124:3
	movl	%eax, -52(%rbp)         ## 4-byte Spill
	movb	$0, %al
	callq	_printf
	leaq	L_.str.14(%rip), %rdi
	.loc	1 125 3                 ## main.c:125:3
	movl	%eax, -56(%rbp)         ## 4-byte Spill
	movb	$0, %al
	callq	_printf
	leaq	L_.str.15(%rip), %rdi
	.loc	1 126 3                 ## main.c:126:3
	movl	%eax, -60(%rbp)         ## 4-byte Spill
	movb	$0, %al
	callq	_printf
	leaq	L_.str.16(%rip), %rdi
	.loc	1 127 3                 ## main.c:127:3
	movl	%eax, -64(%rbp)         ## 4-byte Spill
	movb	$0, %al
	callq	_printf
	leaq	L_.str.17(%rip), %rdi
	.loc	1 128 3                 ## main.c:128:3
	movl	%eax, -68(%rbp)         ## 4-byte Spill
	movb	$0, %al
	callq	_printf
	leaq	L_.str.18(%rip), %rdi
	.loc	1 130 3                 ## main.c:130:3
	movl	%eax, -72(%rbp)         ## 4-byte Spill
	movb	$0, %al
	callq	_printf
	leaq	L_.str.19(%rip), %rdi
	.loc	1 131 3                 ## main.c:131:3
	movl	%eax, -76(%rbp)         ## 4-byte Spill
	movb	$0, %al
	callq	_printf
	leaq	L_.str.20(%rip), %rdi
	.loc	1 132 3                 ## main.c:132:3
	movl	%eax, -80(%rbp)         ## 4-byte Spill
	movb	$0, %al
	callq	_printf
	leaq	L_.str.21(%rip), %rdi
	.loc	1 133 3                 ## main.c:133:3
	movl	%eax, -84(%rbp)         ## 4-byte Spill
	movb	$0, %al
	callq	_printf
	leaq	L_.str.22(%rip), %rdi
	.loc	1 134 3                 ## main.c:134:3
	movl	%eax, -88(%rbp)         ## 4-byte Spill
	movb	$0, %al
	callq	_printf
	leaq	L_.str.23(%rip), %rdi
	.loc	1 135 3                 ## main.c:135:3
	movl	%eax, -92(%rbp)         ## 4-byte Spill
	movb	$0, %al
	callq	_printf
	leaq	L_.str.24(%rip), %rdi
	.loc	1 136 3                 ## main.c:136:3
	movl	%eax, -96(%rbp)         ## 4-byte Spill
	movb	$0, %al
	callq	_printf
	leaq	L_.str.25(%rip), %rdi
	.loc	1 137 3                 ## main.c:137:3
	movl	%eax, -100(%rbp)        ## 4-byte Spill
	movb	$0, %al
	callq	_printf
	leaq	L_.str.26(%rip), %rdi
	.loc	1 138 3                 ## main.c:138:3
	movl	%eax, -104(%rbp)        ## 4-byte Spill
	movb	$0, %al
	callq	_printf
	leaq	L_.str.27(%rip), %rdi
	.loc	1 139 3                 ## main.c:139:3
	movl	%eax, -108(%rbp)        ## 4-byte Spill
	movb	$0, %al
	callq	_printf
	leaq	L_.str.28(%rip), %rdi
	.loc	1 140 3                 ## main.c:140:3
	movl	%eax, -112(%rbp)        ## 4-byte Spill
	movb	$0, %al
	callq	_printf
	leaq	L_.str.29(%rip), %rdi
	.loc	1 141 3                 ## main.c:141:3
	movl	%eax, -116(%rbp)        ## 4-byte Spill
	movb	$0, %al
	callq	_printf
	leaq	L_.str.30(%rip), %rdi
	.loc	1 142 3                 ## main.c:142:3
	movl	%eax, -120(%rbp)        ## 4-byte Spill
	movb	$0, %al
	callq	_printf
	leaq	L_.str.31(%rip), %rdi
	.loc	1 143 3                 ## main.c:143:3
	movl	%eax, -124(%rbp)        ## 4-byte Spill
	movb	$0, %al
	callq	_printf
	leaq	L_.str.32(%rip), %rdi
	.loc	1 145 3                 ## main.c:145:3
	movl	%eax, -128(%rbp)        ## 4-byte Spill
	movb	$0, %al
	callq	_printf
	leaq	L_.str.33(%rip), %rdi
	.loc	1 147 3                 ## main.c:147:3
	movl	%eax, -132(%rbp)        ## 4-byte Spill
	movb	$0, %al
	callq	_printf
	leaq	L_.str.34(%rip), %rdi
	.loc	1 148 3                 ## main.c:148:3
	movl	%eax, -136(%rbp)        ## 4-byte Spill
	movb	$0, %al
	callq	_printf
	leaq	L_.str.35(%rip), %rdi
	.loc	1 149 3                 ## main.c:149:3
	movl	%eax, -140(%rbp)        ## 4-byte Spill
	movb	$0, %al
	callq	_printf
	leaq	L_.str.36(%rip), %rdi
	.loc	1 150 3                 ## main.c:150:3
	movl	%eax, -144(%rbp)        ## 4-byte Spill
	movb	$0, %al
	callq	_printf
	leaq	L_.str.37(%rip), %rdi
	.loc	1 151 3                 ## main.c:151:3
	movl	%eax, -148(%rbp)        ## 4-byte Spill
	movb	$0, %al
	callq	_printf
	leaq	L_.str.38(%rip), %rdi
	.loc	1 152 3                 ## main.c:152:3
	movl	%eax, -152(%rbp)        ## 4-byte Spill
	movb	$0, %al
	callq	_printf
	leaq	L_.str.39(%rip), %rdi
	.loc	1 153 3                 ## main.c:153:3
	movl	%eax, -156(%rbp)        ## 4-byte Spill
	movb	$0, %al
	callq	_printf
	leaq	L_.str.40(%rip), %rdi
	.loc	1 154 3                 ## main.c:154:3
	movl	%eax, -160(%rbp)        ## 4-byte Spill
	movb	$0, %al
	callq	_printf
	leaq	L_.str.41(%rip), %rdi
	.loc	1 155 3                 ## main.c:155:3
	movl	%eax, -164(%rbp)        ## 4-byte Spill
	movb	$0, %al
	callq	_printf
	leaq	L_.str.42(%rip), %rdi
	.loc	1 156 3                 ## main.c:156:3
	movl	%eax, -168(%rbp)        ## 4-byte Spill
	movb	$0, %al
	callq	_printf
	.loc	1 158 1                 ## main.c:158:1
	movl	%eax, -172(%rbp)        ## 4-byte Spill
	addq	$176, %rsp
	popq	%rbp
	retq
Ltmp37:
Lfunc_end3:
	.cfi_endproc
                                        ## -- End function
	.globl	_tga_get_line_height    ## -- Begin function tga_get_line_height
	.p2align	4, 0x90
_tga_get_line_height:                   ## @tga_get_line_height
Lfunc_begin4:
	.loc	1 177 0                 ## main.c:177:0
	.cfi_startproc
## BB#0:
	pushq	%rbp
Lcfi12:
	.cfi_def_cfa_offset 16
Lcfi13:
	.cfi_offset %rbp, -16
	movq	%rsp, %rbp
Lcfi14:
	.cfi_def_cfa_register %rbp
	subq	$32, %rsp
	movq	%rdi, -16(%rbp)
	movq	%rsi, -24(%rbp)
Ltmp38:
	.loc	1 179 16 prologue_end   ## main.c:179:16
	movq	-16(%rbp), %rsi
	.loc	1 179 30 is_stmt 0      ## main.c:179:30
	movq	1288(%rsi), %rdi
	.loc	1 179 3                 ## main.c:179:3
	callq	_tga_set_font
	.loc	1 180 7 is_stmt 1       ## main.c:180:7
	callq	_tga_get_char_height
	.loc	1 180 5 is_stmt 0       ## main.c:180:5
	movl	%eax, -28(%rbp)
	.loc	1 181 16 is_stmt 1      ## main.c:181:16
	movq	-24(%rbp), %rsi
	.loc	1 181 20 is_stmt 0      ## main.c:181:20
	movq	1288(%rsi), %rdi
	.loc	1 181 3                 ## main.c:181:3
	callq	_tga_set_font
Ltmp39:
	.loc	1 182 8 is_stmt 1       ## main.c:182:8
	movl	-28(%rbp), %eax
	.loc	1 182 12 is_stmt 0      ## main.c:182:12
	movl	%eax, -32(%rbp)         ## 4-byte Spill
	callq	_tga_get_char_height
	.loc	1 182 10                ## main.c:182:10
	movl	-32(%rbp), %ecx         ## 4-byte Reload
	cmpl	%eax, %ecx
Ltmp40:
	.loc	1 182 8                 ## main.c:182:8
	jae	LBB4_2
## BB#1:
Ltmp41:
	.loc	1 183 12 is_stmt 1      ## main.c:183:12
	callq	_tga_get_char_height
	.loc	1 183 5 is_stmt 0       ## main.c:183:5
	movl	%eax, -4(%rbp)
	jmp	LBB4_3
Ltmp42:
LBB4_2:
	.loc	1 184 10 is_stmt 1      ## main.c:184:10
	movl	-28(%rbp), %eax
	.loc	1 184 3 is_stmt 0       ## main.c:184:3
	movl	%eax, -4(%rbp)
LBB4_3:
	.loc	1 185 1 is_stmt 1       ## main.c:185:1
	movl	-4(%rbp), %eax
	addq	$32, %rsp
	popq	%rbp
	retq
Ltmp43:
Lfunc_end4:
	.cfi_endproc
                                        ## -- End function
	.globl	_tga_draw_font_line     ## -- Begin function tga_draw_font_line
	.p2align	4, 0x90
_tga_draw_font_line:                    ## @tga_draw_font_line
Lfunc_begin5:
	.loc	1 188 0                 ## main.c:188:0
	.cfi_startproc
## BB#0:
	pushq	%rbp
Lcfi15:
	.cfi_def_cfa_offset 16
Lcfi16:
	.cfi_offset %rbp, -16
	movq	%rsp, %rbp
Lcfi17:
	.cfi_def_cfa_register %rbp
	subq	$160, %rsp
	movq	___stack_chk_guard@GOTPCREL(%rip), %rax
	movq	(%rax), %rax
	movq	%rax, -8(%rbp)
	movl	%edi, -56(%rbp)
	movq	%rsi, -64(%rbp)
	movq	%rdx, -72(%rbp)
	movq	%rcx, -80(%rbp)
	movq	%r8, -88(%rbp)
Ltmp44:
	.loc	1 194 12 prologue_end   ## main.c:194:12
	movl	$1, -104(%rbp)
Ltmp45:
	.loc	1 195 10                ## main.c:195:10
	movq	$0, -96(%rbp)
LBB5_1:                                 ## =>This Inner Loop Header: Depth=1
	.loc	1 0 10 is_stmt 0        ## main.c:0:10
	xorl	%eax, %eax
	movb	%al, %cl
Ltmp46:
	.loc	1 195 16                ## main.c:195:16
	cmpq	$16, -96(%rbp)
	.loc	1 195 21                ## main.c:195:21
	movb	%cl, -105(%rbp)         ## 1-byte Spill
	jge	LBB5_3
## BB#2:                                ##   in Loop: Header=BB5_1 Depth=1
	.loc	1 195 33                ## main.c:195:33
	cmpl	$0, -104(%rbp)
	setne	%al
	movb	%al, -105(%rbp)         ## 1-byte Spill
Ltmp47:
LBB5_3:                                 ##   in Loop: Header=BB5_1 Depth=1
	.loc	1 0 33                  ## main.c:0:33
	movb	-105(%rbp), %al         ## 1-byte Reload
	.loc	1 195 3                 ## main.c:195:3
	testb	$1, %al
	jne	LBB5_4
	jmp	LBB5_8
LBB5_4:                                 ##   in Loop: Header=BB5_1 Depth=1
Ltmp48:
	.loc	1 197 29 is_stmt 1      ## main.c:197:29
	movq	-96(%rbp), %rax
	.loc	1 197 30 is_stmt 0      ## main.c:197:30
	addq	-64(%rbp), %rax
	.loc	1 197 29                ## main.c:197:29
	movw	%ax, %cx
	.loc	1 197 10                ## main.c:197:10
	movzwl	%cx, %edi
	callq	_tga_get_glyph_data
	.loc	1 197 42                ## main.c:197:42
	cmpq	$0, %rax
Ltmp49:
	.loc	1 197 10                ## main.c:197:10
	je	LBB5_6
## BB#5:                                ##   in Loop: Header=BB5_1 Depth=1
Ltmp50:
	.loc	1 198 11 is_stmt 1      ## main.c:198:11
	movl	$0, -104(%rbp)
Ltmp51:
LBB5_6:                                 ##   in Loop: Header=BB5_1 Depth=1
	.loc	1 199 3                 ## main.c:199:3
	jmp	LBB5_7
Ltmp52:
LBB5_7:                                 ##   in Loop: Header=BB5_1 Depth=1
	.loc	1 195 40                ## main.c:195:40
	movq	-96(%rbp), %rax
	addq	$1, %rax
	movq	%rax, -96(%rbp)
	.loc	1 195 3 is_stmt 0       ## main.c:195:3
	jmp	LBB5_1
Ltmp53:
LBB5_8:
	.loc	1 201 17 is_stmt 1      ## main.c:201:17
	cmpl	$0, -104(%rbp)
Ltmp54:
	.loc	1 201 8 is_stmt 0       ## main.c:201:8
	je	LBB5_10
## BB#9:
Ltmp55:
	.loc	1 202 5 is_stmt 1       ## main.c:202:5
	movl	$0, -52(%rbp)
	jmp	LBB5_19
Ltmp56:
LBB5_10:
	.loc	1 0 5 is_stmt 0         ## main.c:0:5
	xorl	%esi, %esi
	movl	$32, %eax
	movl	%eax, %edx
	leaq	L_.str.44(%rip), %rcx
	leaq	-48(%rbp), %rdi
	.loc	1 204 3 is_stmt 1       ## main.c:204:3
	movq	-64(%rbp), %r8
	movq	-64(%rbp), %r9
	movb	$0, %al
	callq	___sprintf_chk
	.loc	1 206 7                 ## main.c:206:7
	movq	_left_margin(%rip), %rcx
	movl	%ecx, %esi
	.loc	1 206 5 is_stmt 0       ## main.c:206:5
	movl	%esi, -100(%rbp)
Ltmp57:
	.loc	1 207 21 is_stmt 1      ## main.c:207:21
	cmpq	$0, -72(%rbp)
Ltmp58:
	.loc	1 207 8 is_stmt 0       ## main.c:207:8
	movl	%eax, -112(%rbp)        ## 4-byte Spill
	je	LBB5_14
## BB#11:
Ltmp59:
	.loc	1 209 10 is_stmt 1      ## main.c:209:10
	movq	-72(%rbp), %rax
	.loc	1 209 36 is_stmt 0      ## main.c:209:36
	cmpq	$0, 1288(%rax)
Ltmp60:
	.loc	1 209 10                ## main.c:209:10
	je	LBB5_13
## BB#12:
Ltmp61:
	.loc	1 211 20 is_stmt 1      ## main.c:211:20
	movq	-72(%rbp), %rax
	.loc	1 211 34 is_stmt 0      ## main.c:211:34
	movq	1288(%rax), %rdi
	.loc	1 211 7                 ## main.c:211:7
	callq	_tga_set_font
	xorl	%ecx, %ecx
	leaq	-48(%rbp), %rdx
	.loc	1 212 28 is_stmt 1      ## main.c:212:28
	movl	-100(%rbp), %edi
	.loc	1 212 31 is_stmt 0      ## main.c:212:31
	movl	-56(%rbp), %esi
	.loc	1 212 12                ## main.c:212:12
	movl	%ecx, -116(%rbp)        ## 4-byte Spill
	movl	-116(%rbp), %r8d        ## 4-byte Reload
	callq	_tga_draw_string
	.loc	1 212 9                 ## main.c:212:9
	addl	-100(%rbp), %eax
	movl	%eax, -100(%rbp)
Ltmp62:
LBB5_13:
	.loc	1 214 3 is_stmt 1       ## main.c:214:3
	jmp	LBB5_14
Ltmp63:
LBB5_14:
	.loc	1 215 5                 ## main.c:215:5
	movl	-100(%rbp), %eax
	addl	$4, %eax
	movl	%eax, -100(%rbp)
	.loc	1 217 16                ## main.c:217:16
	movq	-80(%rbp), %rcx
	.loc	1 217 20 is_stmt 0      ## main.c:217:20
	movq	1288(%rcx), %rdi
	.loc	1 217 3                 ## main.c:217:3
	callq	_tga_set_font
Ltmp64:
	.loc	1 218 10 is_stmt 1      ## main.c:218:10
	movq	$0, -96(%rbp)
LBB5_15:                                ## =>This Inner Loop Header: Depth=1
Ltmp65:
	.loc	1 218 15 is_stmt 0      ## main.c:218:15
	movq	-96(%rbp), %rax
	.loc	1 218 16                ## main.c:218:16
	cmpq	-88(%rbp), %rax
Ltmp66:
	.loc	1 218 3                 ## main.c:218:3
	jge	LBB5_18
## BB#16:                               ##   in Loop: Header=BB5_15 Depth=1
Ltmp67:
	.loc	1 220 20 is_stmt 1      ## main.c:220:20
	movl	-100(%rbp), %eax
	movl	%eax, %ecx
	.loc	1 220 25 is_stmt 0      ## main.c:220:25
	movq	%rcx, -128(%rbp)        ## 8-byte Spill
	callq	_tga_get_char_width
	.loc	1 220 45                ## main.c:220:45
	addl	$2, %eax
	.loc	1 220 24                ## main.c:220:24
	movslq	%eax, %rcx
	.loc	1 220 48                ## main.c:220:48
	imulq	-96(%rbp), %rcx
	.loc	1 220 22                ## main.c:220:22
	movq	-128(%rbp), %rdx        ## 8-byte Reload
	addq	%rcx, %rdx
	.loc	1 220 20                ## main.c:220:20
	movl	%edx, %eax
	.loc	1 220 51                ## main.c:220:51
	movl	-56(%rbp), %esi
	.loc	1 220 53                ## main.c:220:53
	movq	-64(%rbp), %rcx
	.loc	1 220 62                ## main.c:220:62
	addq	-96(%rbp), %rcx
	.loc	1 220 53                ## main.c:220:53
	movw	%cx, %di
	.loc	1 220 66                ## main.c:220:66
	movl	_font_picture_extra_info(%rip), %ecx
	.loc	1 220 5                 ## main.c:220:5
	movw	%di, -130(%rbp)         ## 2-byte Spill
	movl	%eax, %edi
	movw	-130(%rbp), %r8w        ## 2-byte Reload
	movzwl	%r8w, %edx
	callq	_tga_draw_glyph
	movl	%eax, -136(%rbp)        ## 4-byte Spill
Ltmp68:
## BB#17:                               ##   in Loop: Header=BB5_15 Depth=1
	.loc	1 218 36 is_stmt 1      ## main.c:218:36
	movq	-96(%rbp), %rax
	addq	$1, %rax
	movq	%rax, -96(%rbp)
	.loc	1 218 3 is_stmt 0       ## main.c:218:3
	jmp	LBB5_15
Ltmp69:
LBB5_18:
	.loc	1 223 10 is_stmt 1      ## main.c:223:10
	movq	_left_margin(%rip), %rax
	.loc	1 223 24 is_stmt 0      ## main.c:223:24
	movl	-100(%rbp), %ecx
	movl	%ecx, %edx
	.loc	1 223 22                ## main.c:223:22
	addq	%rdx, %rax
	.loc	1 223 29                ## main.c:223:29
	movq	%rax, -144(%rbp)        ## 8-byte Spill
	callq	_tga_get_char_width
	.loc	1 223 49                ## main.c:223:49
	addl	$2, %eax
	.loc	1 223 28                ## main.c:223:28
	movslq	%eax, %rdx
	.loc	1 223 52                ## main.c:223:52
	imulq	-88(%rbp), %rdx
	.loc	1 223 26                ## main.c:223:26
	movq	-144(%rbp), %rsi        ## 8-byte Reload
	addq	%rdx, %rsi
	.loc	1 223 10                ## main.c:223:10
	movl	%esi, %eax
	.loc	1 223 3                 ## main.c:223:3
	movl	%eax, -52(%rbp)
LBB5_19:
	.loc	1 224 1 is_stmt 1       ## main.c:224:1
	movl	-52(%rbp), %eax
	movq	___stack_chk_guard@GOTPCREL(%rip), %rcx
	movq	(%rcx), %rcx
	movq	-8(%rbp), %rdx
	cmpq	%rdx, %rcx
	movl	%eax, -148(%rbp)        ## 4-byte Spill
	jne	LBB5_21
## BB#20:
	movl	-148(%rbp), %eax        ## 4-byte Reload
	addq	$160, %rsp
	popq	%rbp
	retq
LBB5_21:
	.loc	1 0 0 is_stmt 0         ## main.c:0:0
	callq	___stack_chk_fail
Ltmp70:
Lfunc_end5:
	.cfi_endproc
                                        ## -- End function
	.globl	_tga_draw_font_info     ## -- Begin function tga_draw_font_info
	.p2align	4, 0x90
_tga_draw_font_info:                    ## @tga_draw_font_info
Lfunc_begin6:
	.loc	1 227 0 is_stmt 1       ## main.c:227:0
	.cfi_startproc
## BB#0:
	pushq	%rbp
Lcfi18:
	.cfi_def_cfa_offset 16
Lcfi19:
	.cfi_offset %rbp, -16
	movq	%rsp, %rbp
Lcfi20:
	.cfi_def_cfa_register %rbp
	subq	$80, %rsp
	movl	$65, %eax
	movl	%eax, %r8d
	movl	%edi, -8(%rbp)
	movq	%rsi, -16(%rbp)
	movq	%rdx, -24(%rbp)
	movq	%rcx, -32(%rbp)
Ltmp71:
	.loc	1 232 16 prologue_end   ## main.c:232:16
	movl	$0, -44(%rbp)
	.loc	1 233 33                ## main.c:233:33
	movq	-32(%rbp), %rdi
	.loc	1 233 11 is_stmt 0      ## main.c:233:11
	movq	%r8, %rsi
	callq	_bf_GetIndexByEncoding
	.loc	1 233 9                 ## main.c:233:9
	movl	%eax, -40(%rbp)
Ltmp72:
	.loc	1 234 14 is_stmt 1      ## main.c:234:14
	cmpl	$0, -40(%rbp)
Ltmp73:
	.loc	1 234 8 is_stmt 0       ## main.c:234:8
	jl	LBB6_2
## BB#1:
Ltmp74:
	.loc	1 236 20 is_stmt 1      ## main.c:236:20
	movq	-32(%rbp), %rax
	.loc	1 236 24 is_stmt 0      ## main.c:236:24
	movq	8(%rax), %rax
	.loc	1 236 20                ## main.c:236:20
	movslq	-40(%rbp), %rcx
	movq	(%rax,%rcx,8), %rax
	.loc	1 236 47                ## main.c:236:47
	movq	48(%rax), %rax
	.loc	1 236 49                ## main.c:236:49
	movq	-32(%rbp), %rcx
	.loc	1 236 53                ## main.c:236:53
	movq	8(%rcx), %rcx
	.loc	1 236 49                ## main.c:236:49
	movslq	-40(%rbp), %rdx
	movq	(%rcx,%rdx,8), %rcx
	.loc	1 236 48                ## main.c:236:48
	addq	64(%rcx), %rax
	.loc	1 236 20                ## main.c:236:20
	movl	%eax, %esi
	.loc	1 236 18                ## main.c:236:18
	movl	%esi, -44(%rbp)
Ltmp75:
LBB6_2:
	.loc	1 239 21 is_stmt 1      ## main.c:239:21
	cmpq	$0, -24(%rbp)
Ltmp76:
	.loc	1 239 8 is_stmt 0       ## main.c:239:8
	je	LBB6_6
## BB#3:
Ltmp77:
	.loc	1 241 10 is_stmt 1      ## main.c:241:10
	movq	-24(%rbp), %rax
	.loc	1 241 36 is_stmt 0      ## main.c:241:36
	cmpq	$0, 1288(%rax)
Ltmp78:
	.loc	1 241 10                ## main.c:241:10
	je	LBB6_5
## BB#4:
Ltmp79:
	.loc	1 244 20 is_stmt 1      ## main.c:244:20
	movq	-24(%rbp), %rax
	.loc	1 244 34 is_stmt 0      ## main.c:244:34
	movq	1288(%rax), %rdi
	.loc	1 244 7                 ## main.c:244:7
	callq	_tga_set_font
	.loc	1 246 13 is_stmt 1      ## main.c:246:13
	callq	_tga_get_char_height
	xorl	%ecx, %ecx
	.loc	1 246 34 is_stmt 0      ## main.c:246:34
	addl	$1, %eax
	.loc	1 246 9                 ## main.c:246:9
	addl	-8(%rbp), %eax
	movl	%eax, -8(%rbp)
	.loc	1 247 11 is_stmt 1      ## main.c:247:11
	movq	_left_margin(%rip), %rdi
	movl	%edi, %eax
	.loc	1 247 9 is_stmt 0       ## main.c:247:9
	movl	%eax, -36(%rbp)
	.loc	1 248 28 is_stmt 1      ## main.c:248:28
	movl	-36(%rbp), %edi
	.loc	1 248 31 is_stmt 0      ## main.c:248:31
	movl	-8(%rbp), %esi
	.loc	1 248 34                ## main.c:248:34
	movq	-16(%rbp), %rdx
	.loc	1 248 12                ## main.c:248:12
	movl	%ecx, -48(%rbp)         ## 4-byte Spill
	movl	-48(%rbp), %r8d         ## 4-byte Reload
	callq	_tga_draw_string
	.loc	1 248 9                 ## main.c:248:9
	addl	-36(%rbp), %eax
	movl	%eax, -36(%rbp)
	.loc	1 250 13 is_stmt 1      ## main.c:250:13
	callq	_tga_get_char_height
	.loc	1 250 34 is_stmt 0      ## main.c:250:34
	addl	$1, %eax
	.loc	1 250 9                 ## main.c:250:9
	addl	-8(%rbp), %eax
	movl	%eax, -8(%rbp)
	.loc	1 251 7 is_stmt 1       ## main.c:251:7
	callq	_tga_get_char_width
	movl	%eax, -52(%rbp)         ## 4-byte Spill
	callq	_tga_get_char_height
	leaq	_tga_draw_font_info.s(%rip), %rdi
	xorl	%esi, %esi
	movl	$256, %ecx              ## imm = 0x100
	movl	%ecx, %edx
	leaq	L_.str.45(%rip), %rcx
	movl	-52(%rbp), %r8d         ## 4-byte Reload
	movl	%eax, %r9d
	movb	$0, %al
	callq	___sprintf_chk
	leaq	_tga_draw_font_info.s(%rip), %rdx
	xorl	%esi, %esi
	.loc	1 252 11                ## main.c:252:11
	movq	_left_margin(%rip), %rcx
	movl	%ecx, %r8d
	.loc	1 252 9 is_stmt 0       ## main.c:252:9
	movl	%r8d, -36(%rbp)
	.loc	1 253 28 is_stmt 1      ## main.c:253:28
	movl	-36(%rbp), %edi
	.loc	1 253 31 is_stmt 0      ## main.c:253:31
	movl	-8(%rbp), %r8d
	.loc	1 253 12                ## main.c:253:12
	movl	%esi, -56(%rbp)         ## 4-byte Spill
	movl	%r8d, %esi
	movl	-56(%rbp), %ecx         ## 4-byte Reload
	movl	-56(%rbp), %r8d         ## 4-byte Reload
	movl	%eax, -60(%rbp)         ## 4-byte Spill
	callq	_tga_draw_string
	.loc	1 253 9                 ## main.c:253:9
	addl	-36(%rbp), %eax
	movl	%eax, -36(%rbp)
	.loc	1 255 13 is_stmt 1      ## main.c:255:13
	callq	_tga_get_char_height
	leaq	_tga_draw_font_info.s(%rip), %rdi
	xorl	%esi, %esi
	movl	$256, %ecx              ## imm = 0x100
	movl	%ecx, %edx
	leaq	L_.str.46(%rip), %rcx
	.loc	1 255 34 is_stmt 0      ## main.c:255:34
	addl	$1, %eax
	.loc	1 255 9                 ## main.c:255:9
	addl	-8(%rbp), %eax
	movl	%eax, -8(%rbp)
	.loc	1 256 7 is_stmt 1       ## main.c:256:7
	movl	-44(%rbp), %r8d
	movq	-32(%rbp), %r10
	movl	1300(%r10), %r9d
	movb	$0, %al
	callq	___sprintf_chk
	leaq	_tga_draw_font_info.s(%rip), %rdx
	xorl	%esi, %esi
	.loc	1 257 11                ## main.c:257:11
	movq	_left_margin(%rip), %rcx
	movl	%ecx, %r8d
	.loc	1 257 9 is_stmt 0       ## main.c:257:9
	movl	%r8d, -36(%rbp)
	.loc	1 258 28 is_stmt 1      ## main.c:258:28
	movl	-36(%rbp), %edi
	.loc	1 258 31 is_stmt 0      ## main.c:258:31
	movl	-8(%rbp), %r8d
	.loc	1 258 12                ## main.c:258:12
	movl	%esi, -64(%rbp)         ## 4-byte Spill
	movl	%r8d, %esi
	movl	-64(%rbp), %ecx         ## 4-byte Reload
	movl	-64(%rbp), %r8d         ## 4-byte Reload
	movl	%eax, -68(%rbp)         ## 4-byte Spill
	callq	_tga_draw_string
	.loc	1 258 9                 ## main.c:258:9
	addl	-36(%rbp), %eax
	movl	%eax, -36(%rbp)
	.loc	1 259 15 is_stmt 1      ## main.c:259:15
	callq	_tga_get_char_height
	.loc	1 259 36 is_stmt 0      ## main.c:259:36
	addl	$1, %eax
	.loc	1 259 39                ## main.c:259:39
	imull	$3, %eax, %eax
	.loc	1 259 7                 ## main.c:259:7
	movl	%eax, -4(%rbp)
	jmp	LBB6_7
Ltmp80:
LBB6_5:
	.loc	1 261 3 is_stmt 1       ## main.c:261:3
	jmp	LBB6_6
Ltmp81:
LBB6_6:
	.loc	1 262 3                 ## main.c:262:3
	movl	$0, -4(%rbp)
LBB6_7:
	.loc	1 263 1                 ## main.c:263:1
	movl	-4(%rbp), %eax
	addq	$80, %rsp
	popq	%rbp
	retq
Ltmp82:
Lfunc_end6:
	.cfi_endproc
                                        ## -- End function
	.globl	_tga_draw_font          ## -- Begin function tga_draw_font
	.p2align	4, 0x90
_tga_draw_font:                         ## @tga_draw_font
Lfunc_begin7:
	.loc	1 267 0                 ## main.c:267:0
	.cfi_startproc
## BB#0:
	pushq	%rbp
Lcfi21:
	.cfi_def_cfa_offset 16
Lcfi22:
	.cfi_offset %rbp, -16
	movq	%rsp, %rbp
Lcfi23:
	.cfi_def_cfa_register %rbp
	subq	$80, %rsp
	movl	%edi, -4(%rbp)
	movq	%rsi, -16(%rbp)
	movq	%rdx, -24(%rbp)
	movq	%rcx, -32(%rbp)
	movq	%r8, -40(%rbp)
Ltmp83:
	.loc	1 270 8 prologue_end    ## main.c:270:8
	movl	$0, -56(%rbp)
	.loc	1 272 10                ## main.c:272:10
	movq	-32(%rbp), %rdi
	.loc	1 272 62 is_stmt 0      ## main.c:272:62
	movq	-24(%rbp), %rcx
	.loc	1 272 76                ## main.c:272:76
	movq	-32(%rbp), %rsi
	.loc	1 272 42                ## main.c:272:42
	movq	%rdi, -64(%rbp)         ## 8-byte Spill
	movq	%rcx, %rdi
	callq	_tga_get_line_height
	leaq	L_.str.47(%rip), %rsi
	.loc	1 272 3                 ## main.c:272:3
	movq	-64(%rbp), %rdi         ## 8-byte Reload
	movl	%eax, %edx
	movb	$0, %al
	callq	_bf_Log
	.loc	1 274 28 is_stmt 1      ## main.c:274:28
	movl	-4(%rbp), %edi
	.loc	1 274 31 is_stmt 0      ## main.c:274:31
	movq	-16(%rbp), %rsi
	.loc	1 274 41                ## main.c:274:41
	movq	-24(%rbp), %rdx
	.loc	1 274 55                ## main.c:274:55
	movq	-32(%rbp), %rcx
	.loc	1 274 8                 ## main.c:274:8
	callq	_tga_draw_font_info
	.loc	1 274 5                 ## main.c:274:5
	addl	-4(%rbp), %eax
	movl	%eax, -4(%rbp)
	.loc	1 276 30 is_stmt 1      ## main.c:276:30
	movq	-24(%rbp), %rdi
	.loc	1 276 44 is_stmt 0      ## main.c:276:44
	movq	-32(%rbp), %rsi
	.loc	1 276 10                ## main.c:276:10
	callq	_tga_get_line_height
	.loc	1 276 47                ## main.c:276:47
	addl	$1, %eax
	.loc	1 276 5                 ## main.c:276:5
	addl	-4(%rbp), %eax
	movl	%eax, -4(%rbp)
Ltmp84:
	.loc	1 280 10 is_stmt 1      ## main.c:280:10
	movq	$0, -48(%rbp)
LBB7_1:                                 ## =>This Inner Loop Header: Depth=1
Ltmp85:
	.loc	1 280 17 is_stmt 0      ## main.c:280:17
	cmpq	$65535, -48(%rbp)       ## imm = 0xFFFF
Ltmp86:
	.loc	1 280 3                 ## main.c:280:3
	jg	LBB7_8
## BB#2:                                ##   in Loop: Header=BB7_1 Depth=1
Ltmp87:
	.loc	1 282 28 is_stmt 1      ## main.c:282:28
	movl	-4(%rbp), %edi
	.loc	1 282 31 is_stmt 0      ## main.c:282:31
	movq	-48(%rbp), %rsi
	.loc	1 282 34                ## main.c:282:34
	movq	-24(%rbp), %rdx
	.loc	1 282 48                ## main.c:282:48
	movq	-32(%rbp), %rcx
	.loc	1 282 52                ## main.c:282:52
	movq	-40(%rbp), %r8
	.loc	1 282 9                 ## main.c:282:9
	callq	_tga_draw_font_line
	.loc	1 282 7                 ## main.c:282:7
	movl	%eax, -52(%rbp)
Ltmp88:
	.loc	1 283 12 is_stmt 1      ## main.c:283:12
	cmpl	$0, -52(%rbp)
Ltmp89:
	.loc	1 283 10 is_stmt 0      ## main.c:283:10
	jbe	LBB7_6
## BB#3:                                ##   in Loop: Header=BB7_1 Depth=1
Ltmp90:
	.loc	1 285 12 is_stmt 1      ## main.c:285:12
	movl	-56(%rbp), %eax
	.loc	1 285 17 is_stmt 0      ## main.c:285:17
	cmpl	-52(%rbp), %eax
Ltmp91:
	.loc	1 285 12                ## main.c:285:12
	jae	LBB7_5
## BB#4:                                ##   in Loop: Header=BB7_1 Depth=1
Ltmp92:
	.loc	1 286 9 is_stmt 1       ## main.c:286:9
	movl	-52(%rbp), %eax
	.loc	1 286 7 is_stmt 0       ## main.c:286:7
	movl	%eax, -56(%rbp)
Ltmp93:
LBB7_5:                                 ##   in Loop: Header=BB7_1 Depth=1
	.loc	1 287 33 is_stmt 1      ## main.c:287:33
	movq	-24(%rbp), %rdi
	.loc	1 287 47 is_stmt 0      ## main.c:287:47
	movq	-32(%rbp), %rsi
	.loc	1 287 13                ## main.c:287:13
	callq	_tga_get_line_height
	.loc	1 287 50                ## main.c:287:50
	addl	$1, %eax
	.loc	1 287 9                 ## main.c:287:9
	addl	-4(%rbp), %eax
	movl	%eax, -4(%rbp)
Ltmp94:
LBB7_6:                                 ##   in Loop: Header=BB7_1 Depth=1
	.loc	1 290 3 is_stmt 1       ## main.c:290:3
	jmp	LBB7_7
Ltmp95:
LBB7_7:                                 ##   in Loop: Header=BB7_1 Depth=1
	.loc	1 280 32                ## main.c:280:32
	movq	-40(%rbp), %rax
	.loc	1 280 30 is_stmt 0      ## main.c:280:30
	addq	-48(%rbp), %rax
	movq	%rax, -48(%rbp)
	.loc	1 280 3                 ## main.c:280:3
	jmp	LBB7_1
Ltmp96:
LBB7_8:
	.loc	1 0 3                   ## main.c:0:3
	leaq	L_.str.48(%rip), %rsi
	.loc	1 292 10 is_stmt 1      ## main.c:292:10
	movq	-32(%rbp), %rdi
	.loc	1 292 35 is_stmt 0      ## main.c:292:35
	movl	-56(%rbp), %edx
	.loc	1 292 3                 ## main.c:292:3
	movb	$0, %al
	callq	_bf_Log
	.loc	1 294 16 is_stmt 1      ## main.c:294:16
	movq	-32(%rbp), %rsi
	.loc	1 294 20 is_stmt 0      ## main.c:294:20
	movq	1288(%rsi), %rdi
	.loc	1 294 3                 ## main.c:294:3
	callq	_tga_set_font
Ltmp97:
	.loc	1 298 33 is_stmt 1      ## main.c:298:33
	cmpl	$0, _font_picture_test_string(%rip)
Ltmp98:
	.loc	1 298 8 is_stmt 0       ## main.c:298:8
	je	LBB7_10
## BB#9:
	.loc	1 0 8                   ## main.c:0:8
	leaq	L_.str.49(%rip), %rdx
	xorl	%ecx, %ecx
Ltmp99:
	.loc	1 300 21 is_stmt 1      ## main.c:300:21
	movq	_left_margin(%rip), %rax
	movl	%eax, %esi
	.loc	1 300 34 is_stmt 0      ## main.c:300:34
	movl	-4(%rbp), %edi
	.loc	1 300 89                ## main.c:300:89
	movl	-56(%rbp), %r8d
	.loc	1 300 5                 ## main.c:300:5
	movl	%edi, -68(%rbp)         ## 4-byte Spill
	movl	%esi, %edi
	movl	-68(%rbp), %esi         ## 4-byte Reload
	callq	_tga_draw_string
	.loc	1 301 31 is_stmt 1      ## main.c:301:31
	movq	-24(%rbp), %rdi
	.loc	1 301 45 is_stmt 0      ## main.c:301:45
	movq	-32(%rbp), %rsi
	.loc	1 301 11                ## main.c:301:11
	movl	%eax, -72(%rbp)         ## 4-byte Spill
	callq	_tga_get_line_height
	.loc	1 301 48                ## main.c:301:48
	addl	$1, %eax
	.loc	1 301 7                 ## main.c:301:7
	addl	-4(%rbp), %eax
	movl	%eax, -4(%rbp)
Ltmp100:
LBB7_10:
	.loc	1 303 10 is_stmt 1      ## main.c:303:10
	movl	-4(%rbp), %eax
	.loc	1 303 3 is_stmt 0       ## main.c:303:3
	addq	$80, %rsp
	popq	%rbp
	retq
Ltmp101:
Lfunc_end7:
	.cfi_endproc
                                        ## -- End function
	.section	__TEXT,__literal8,8byte_literals
	.p2align	3               ## -- Begin function main
LCPI8_0:
	.quad	4696837146684686336     ## double 1.0E+6
	.section	__TEXT,__literal16,16byte_literals
	.p2align	4
LCPI8_1:
	.long	1127219200              ## 0x43300000
	.long	1160773632              ## 0x45300000
	.long	0                       ## 0x0
	.long	0                       ## 0x0
LCPI8_2:
	.quad	4841369599423283200     ## double 4503599627370496
	.quad	4985484787499139072     ## double 1.9342813113834067E+25
	.section	__TEXT,__text,regular,pure_instructions
	.globl	_main
	.p2align	4, 0x90
_main:                                  ## @main
Lfunc_begin8:
	.loc	1 311 0 is_stmt 1       ## main.c:311:0
	.cfi_startproc
## BB#0:
	pushq	%rbp
Lcfi24:
	.cfi_def_cfa_offset 16
Lcfi25:
	.cfi_offset %rbp, -16
	movq	%rsp, %rbp
Lcfi26:
	.cfi_def_cfa_register %rbp
	subq	$240, %rsp
	leaq	L_.str.51(%rip), %rax
	leaq	L_.str.50(%rip), %rcx
	movl	$0, -4(%rbp)
	movl	%edi, -8(%rbp)
	movq	%rsi, -16(%rbp)
Ltmp102:
	.loc	1 314 9 prologue_end    ## main.c:314:9
	movq	$0, -40(%rbp)
	.loc	1 315 7                 ## main.c:315:7
	movl	$0, -44(%rbp)
	.loc	1 316 9                 ## main.c:316:9
	movq	%rcx, -56(%rbp)
	.loc	1 317 9                 ## main.c:317:9
	movq	%rax, -64(%rbp)
	.loc	1 318 9                 ## main.c:318:9
	movq	%rax, -72(%rbp)
	.loc	1 321 7                 ## main.c:321:7
	movq	-16(%rbp), %rax
	addq	$8, %rax
	movq	%rax, -16(%rbp)
LBB8_1:                                 ## =>This Inner Loop Header: Depth=1
Ltmp103:
	.loc	1 331 11                ## main.c:331:11
	movq	-16(%rbp), %rax
	.loc	1 331 16 is_stmt 0      ## main.c:331:16
	cmpq	$0, (%rax)
Ltmp104:
	.loc	1 331 10                ## main.c:331:10
	jne	LBB8_3
## BB#2:
Ltmp105:
	.loc	1 332 7 is_stmt 1       ## main.c:332:7
	jmp	LBB8_52
Ltmp106:
LBB8_3:                                 ##   in Loop: Header=BB8_1 Depth=1
	.loc	1 0 7 is_stmt 0         ## main.c:0:7
	leaq	-16(%rbp), %rdi
	movl	$104, %esi
Ltmp107:
	.loc	1 333 10 is_stmt 1      ## main.c:333:10
	callq	_is_arg
	.loc	1 333 29 is_stmt 0      ## main.c:333:29
	cmpl	$0, %eax
Ltmp108:
	.loc	1 333 10                ## main.c:333:10
	je	LBB8_5
## BB#4:
Ltmp109:
	.loc	1 335 7 is_stmt 1       ## main.c:335:7
	callq	_help
	movl	$1, %edi
	.loc	1 336 7                 ## main.c:336:7
	callq	_exit
Ltmp110:
LBB8_5:                                 ##   in Loop: Header=BB8_1 Depth=1
	.loc	1 0 7 is_stmt 0         ## main.c:0:7
	leaq	-16(%rbp), %rdi
	movl	$118, %esi
Ltmp111:
	.loc	1 338 15 is_stmt 1      ## main.c:338:15
	callq	_is_arg
	.loc	1 338 34 is_stmt 0      ## main.c:338:34
	cmpl	$0, %eax
Ltmp112:
	.loc	1 338 15                ## main.c:338:15
	je	LBB8_7
## BB#6:                                ##   in Loop: Header=BB8_1 Depth=1
Ltmp113:
	.loc	1 340 18 is_stmt 1      ## main.c:340:18
	movl	$1, -44(%rbp)
	.loc	1 341 5                 ## main.c:341:5
	jmp	LBB8_50
Ltmp114:
LBB8_7:                                 ##   in Loop: Header=BB8_1 Depth=1
	.loc	1 0 5 is_stmt 0         ## main.c:0:5
	leaq	-16(%rbp), %rdi
	movl	$97, %esi
Ltmp115:
	.loc	1 342 15 is_stmt 1      ## main.c:342:15
	callq	_is_arg
	.loc	1 342 34 is_stmt 0      ## main.c:342:34
	cmpl	$0, %eax
Ltmp116:
	.loc	1 342 15                ## main.c:342:15
	je	LBB8_9
## BB#8:                                ##   in Loop: Header=BB8_1 Depth=1
Ltmp117:
	.loc	1 344 31 is_stmt 1      ## main.c:344:31
	movl	$1, _font_picture_extra_info(%rip)
	.loc	1 345 5                 ## main.c:345:5
	jmp	LBB8_49
Ltmp118:
LBB8_9:                                 ##   in Loop: Header=BB8_1 Depth=1
	.loc	1 0 5 is_stmt 0         ## main.c:0:5
	leaq	-16(%rbp), %rdi
	movl	$116, %esi
Ltmp119:
	.loc	1 346 15 is_stmt 1      ## main.c:346:15
	callq	_is_arg
	.loc	1 346 34 is_stmt 0      ## main.c:346:34
	cmpl	$0, %eax
Ltmp120:
	.loc	1 346 15                ## main.c:346:15
	je	LBB8_11
## BB#10:                               ##   in Loop: Header=BB8_1 Depth=1
Ltmp121:
	.loc	1 348 32 is_stmt 1      ## main.c:348:32
	movl	$1, _font_picture_test_string(%rip)
	.loc	1 349 5                 ## main.c:349:5
	jmp	LBB8_48
Ltmp122:
LBB8_11:                                ##   in Loop: Header=BB8_1 Depth=1
	.loc	1 0 5 is_stmt 0         ## main.c:0:5
	leaq	-16(%rbp), %rdi
	movl	$114, %esi
Ltmp123:
	.loc	1 350 15 is_stmt 1      ## main.c:350:15
	callq	_is_arg
	.loc	1 350 34 is_stmt 0      ## main.c:350:34
	cmpl	$0, %eax
Ltmp124:
	.loc	1 350 15                ## main.c:350:15
	je	LBB8_13
## BB#12:                               ##   in Loop: Header=BB8_1 Depth=1
Ltmp125:
	.loc	1 352 20 is_stmt 1      ## main.c:352:20
	movl	$1, _runtime_test(%rip)
	.loc	1 353 5                 ## main.c:353:5
	jmp	LBB8_47
Ltmp126:
LBB8_13:                                ##   in Loop: Header=BB8_1 Depth=1
	.loc	1 0 5 is_stmt 0         ## main.c:0:5
	leaq	-16(%rbp), %rdi
	movl	$103, %esi
	leaq	_cmdline_glyphs_per_line(%rip), %rdx
Ltmp127:
	.loc	1 354 15 is_stmt 1      ## main.c:354:15
	callq	_get_num_arg
	.loc	1 354 65 is_stmt 0      ## main.c:354:65
	cmpl	$0, %eax
Ltmp128:
	.loc	1 354 15                ## main.c:354:15
	je	LBB8_15
## BB#14:                               ##   in Loop: Header=BB8_1 Depth=1
Ltmp129:
	.loc	1 356 5 is_stmt 1       ## main.c:356:5
	jmp	LBB8_46
Ltmp130:
LBB8_15:                                ##   in Loop: Header=BB8_1 Depth=1
	.loc	1 0 5 is_stmt 0         ## main.c:0:5
	leaq	-16(%rbp), %rdi
	movl	$98, %esi
	leaq	_build_bbx_mode(%rip), %rdx
Ltmp131:
	.loc	1 357 15 is_stmt 1      ## main.c:357:15
	callq	_get_num_arg
	.loc	1 357 56 is_stmt 0      ## main.c:357:56
	cmpl	$0, %eax
Ltmp132:
	.loc	1 357 15                ## main.c:357:15
	je	LBB8_17
## BB#16:                               ##   in Loop: Header=BB8_1 Depth=1
Ltmp133:
	.loc	1 359 5 is_stmt 1       ## main.c:359:5
	jmp	LBB8_45
Ltmp134:
LBB8_17:                                ##   in Loop: Header=BB8_1 Depth=1
	.loc	1 0 5 is_stmt 0         ## main.c:0:5
	leaq	-16(%rbp), %rdi
	movl	$102, %esi
	leaq	_font_format(%rip), %rdx
Ltmp135:
	.loc	1 360 15 is_stmt 1      ## main.c:360:15
	callq	_get_num_arg
	.loc	1 360 53 is_stmt 0      ## main.c:360:53
	cmpl	$0, %eax
Ltmp136:
	.loc	1 360 15                ## main.c:360:15
	je	LBB8_19
## BB#18:                               ##   in Loop: Header=BB8_1 Depth=1
Ltmp137:
	.loc	1 362 5 is_stmt 1       ## main.c:362:5
	jmp	LBB8_44
Ltmp138:
LBB8_19:                                ##   in Loop: Header=BB8_1 Depth=1
	.loc	1 0 5 is_stmt 0         ## main.c:0:5
	leaq	-16(%rbp), %rdi
	movl	$108, %esi
	leaq	_left_margin(%rip), %rdx
Ltmp139:
	.loc	1 363 15 is_stmt 1      ## main.c:363:15
	callq	_get_num_arg
	.loc	1 363 53 is_stmt 0      ## main.c:363:53
	cmpl	$0, %eax
Ltmp140:
	.loc	1 363 15                ## main.c:363:15
	je	LBB8_21
## BB#20:                               ##   in Loop: Header=BB8_1 Depth=1
Ltmp141:
	.loc	1 365 5 is_stmt 1       ## main.c:365:5
	jmp	LBB8_43
Ltmp142:
LBB8_21:                                ##   in Loop: Header=BB8_1 Depth=1
	.loc	1 0 5 is_stmt 0         ## main.c:0:5
	leaq	-16(%rbp), %rdi
	movl	$112, %esi
	leaq	_min_distance_in_per_cent_of_char_width(%rip), %rdx
Ltmp143:
	.loc	1 366 15 is_stmt 1      ## main.c:366:15
	callq	_get_num_arg
	.loc	1 366 80 is_stmt 0      ## main.c:366:80
	cmpl	$0, %eax
Ltmp144:
	.loc	1 366 15                ## main.c:366:15
	je	LBB8_23
## BB#22:                               ##   in Loop: Header=BB8_1 Depth=1
Ltmp145:
	.loc	1 368 5 is_stmt 1       ## main.c:368:5
	jmp	LBB8_42
Ltmp146:
LBB8_23:                                ##   in Loop: Header=BB8_1 Depth=1
	.loc	1 0 5 is_stmt 0         ## main.c:0:5
	leaq	-16(%rbp), %rdi
	movl	$100, %esi
	leaq	-72(%rbp), %rdx
Ltmp147:
	.loc	1 369 15 is_stmt 1      ## main.c:369:15
	callq	_get_str_arg
	.loc	1 369 55 is_stmt 0      ## main.c:369:55
	cmpl	$0, %eax
Ltmp148:
	.loc	1 369 15                ## main.c:369:15
	je	LBB8_25
## BB#24:                               ##   in Loop: Header=BB8_1 Depth=1
Ltmp149:
	.loc	1 371 5 is_stmt 1       ## main.c:371:5
	jmp	LBB8_41
Ltmp150:
LBB8_25:                                ##   in Loop: Header=BB8_1 Depth=1
	.loc	1 0 5 is_stmt 0         ## main.c:0:5
	leaq	-16(%rbp), %rdi
	movl	$111, %esi
	leaq	_c_filename(%rip), %rdx
Ltmp151:
	.loc	1 372 15 is_stmt 1      ## main.c:372:15
	callq	_get_str_arg
	.loc	1 372 52 is_stmt 0      ## main.c:372:52
	cmpl	$0, %eax
Ltmp152:
	.loc	1 372 15                ## main.c:372:15
	je	LBB8_27
## BB#26:                               ##   in Loop: Header=BB8_1 Depth=1
Ltmp153:
	.loc	1 374 5 is_stmt 1       ## main.c:374:5
	jmp	LBB8_40
Ltmp154:
LBB8_27:                                ##   in Loop: Header=BB8_1 Depth=1
	.loc	1 0 5 is_stmt 0         ## main.c:0:5
	leaq	-16(%rbp), %rdi
	movl	$110, %esi
	leaq	_target_fontname(%rip), %rdx
Ltmp155:
	.loc	1 375 15 is_stmt 1      ## main.c:375:15
	callq	_get_str_arg
	.loc	1 375 57 is_stmt 0      ## main.c:375:57
	cmpl	$0, %eax
Ltmp156:
	.loc	1 375 15                ## main.c:375:15
	je	LBB8_29
## BB#28:                               ##   in Loop: Header=BB8_1 Depth=1
Ltmp157:
	.loc	1 377 5 is_stmt 1       ## main.c:377:5
	jmp	LBB8_39
Ltmp158:
LBB8_29:                                ##   in Loop: Header=BB8_1 Depth=1
	.loc	1 0 5 is_stmt 0         ## main.c:0:5
	leaq	-16(%rbp), %rdi
	movl	$109, %esi
	leaq	-56(%rbp), %rdx
Ltmp159:
	.loc	1 378 15 is_stmt 1      ## main.c:378:15
	callq	_get_str_arg
	.loc	1 378 49 is_stmt 0      ## main.c:378:49
	cmpl	$0, %eax
Ltmp160:
	.loc	1 378 15                ## main.c:378:15
	je	LBB8_31
## BB#30:                               ##   in Loop: Header=BB8_1 Depth=1
Ltmp161:
	.loc	1 380 5 is_stmt 1       ## main.c:380:5
	jmp	LBB8_38
Ltmp162:
LBB8_31:                                ##   in Loop: Header=BB8_1 Depth=1
	.loc	1 0 5 is_stmt 0         ## main.c:0:5
	leaq	-16(%rbp), %rdi
	movl	$107, %esi
	leaq	_k_filename(%rip), %rdx
Ltmp163:
	.loc	1 381 15 is_stmt 1      ## main.c:381:15
	callq	_get_str_arg
	.loc	1 381 52 is_stmt 0      ## main.c:381:52
	cmpl	$0, %eax
Ltmp164:
	.loc	1 381 15                ## main.c:381:15
	je	LBB8_33
## BB#32:                               ##   in Loop: Header=BB8_1 Depth=1
Ltmp165:
	.loc	1 383 5 is_stmt 1       ## main.c:383:5
	jmp	LBB8_37
Ltmp166:
LBB8_33:                                ##   in Loop: Header=BB8_1 Depth=1
	.loc	1 0 5 is_stmt 0         ## main.c:0:5
	leaq	-16(%rbp), %rdi
	movl	$77, %esi
	leaq	-64(%rbp), %rdx
Ltmp167:
	.loc	1 384 15 is_stmt 1      ## main.c:384:15
	callq	_get_str_arg
	.loc	1 384 54 is_stmt 0      ## main.c:384:54
	cmpl	$0, %eax
Ltmp168:
	.loc	1 384 15                ## main.c:384:15
	je	LBB8_35
## BB#34:                               ##   in Loop: Header=BB8_1 Depth=1
Ltmp169:
	.loc	1 386 5 is_stmt 1       ## main.c:386:5
	jmp	LBB8_36
Ltmp170:
LBB8_35:                                ##   in Loop: Header=BB8_1 Depth=1
	.loc	1 389 23                ## main.c:389:23
	movq	-16(%rbp), %rax
	.loc	1 389 22 is_stmt 0      ## main.c:389:22
	movq	(%rax), %rax
	.loc	1 389 20                ## main.c:389:20
	movq	%rax, -40(%rbp)
	.loc	1 390 11 is_stmt 1      ## main.c:390:11
	movq	-16(%rbp), %rax
	addq	$8, %rax
	movq	%rax, -16(%rbp)
Ltmp171:
LBB8_36:                                ##   in Loop: Header=BB8_1 Depth=1
	.loc	1 0 11 is_stmt 0        ## main.c:0:11
	jmp	LBB8_37
LBB8_37:                                ##   in Loop: Header=BB8_1 Depth=1
	jmp	LBB8_38
LBB8_38:                                ##   in Loop: Header=BB8_1 Depth=1
	jmp	LBB8_39
LBB8_39:                                ##   in Loop: Header=BB8_1 Depth=1
	jmp	LBB8_40
LBB8_40:                                ##   in Loop: Header=BB8_1 Depth=1
	jmp	LBB8_41
LBB8_41:                                ##   in Loop: Header=BB8_1 Depth=1
	jmp	LBB8_42
LBB8_42:                                ##   in Loop: Header=BB8_1 Depth=1
	jmp	LBB8_43
LBB8_43:                                ##   in Loop: Header=BB8_1 Depth=1
	jmp	LBB8_44
LBB8_44:                                ##   in Loop: Header=BB8_1 Depth=1
	jmp	LBB8_45
LBB8_45:                                ##   in Loop: Header=BB8_1 Depth=1
	jmp	LBB8_46
LBB8_46:                                ##   in Loop: Header=BB8_1 Depth=1
	jmp	LBB8_47
LBB8_47:                                ##   in Loop: Header=BB8_1 Depth=1
	jmp	LBB8_48
LBB8_48:                                ##   in Loop: Header=BB8_1 Depth=1
	jmp	LBB8_49
LBB8_49:                                ##   in Loop: Header=BB8_1 Depth=1
	jmp	LBB8_50
LBB8_50:                                ##   in Loop: Header=BB8_1 Depth=1
	jmp	LBB8_51
LBB8_51:                                ##   in Loop: Header=BB8_1 Depth=1
	.loc	1 329 3 is_stmt 1       ## main.c:329:3
	jmp	LBB8_1
Ltmp172:
LBB8_52:
	.loc	1 394 22                ## main.c:394:22
	cmpq	$0, -40(%rbp)
Ltmp173:
	.loc	1 394 8 is_stmt 0       ## main.c:394:8
	jne	LBB8_54
## BB#53:
Ltmp174:
	.loc	1 396 5 is_stmt 1       ## main.c:396:5
	callq	_help
	movl	$1, %edi
	.loc	1 397 5                 ## main.c:397:5
	callq	_exit
Ltmp175:
LBB8_54:
	.loc	1 400 16                ## main.c:400:16
	movq	$0, -24(%rbp)
Ltmp176:
	.loc	1 401 8                 ## main.c:401:8
	movq	-72(%rbp), %rax
	movsbl	(%rax), %ecx
	.loc	1 401 25 is_stmt 0      ## main.c:401:25
	cmpl	$0, %ecx
Ltmp177:
	.loc	1 401 8                 ## main.c:401:8
	je	LBB8_58
## BB#55:
	.loc	1 0 8                   ## main.c:0:8
	xorl	%eax, %eax
	leaq	L_.str.50(%rip), %rcx
	leaq	L_.str.51(%rip), %r8
Ltmp178:
	.loc	1 403 36 is_stmt 1      ## main.c:403:36
	movq	-72(%rbp), %rdi
	.loc	1 403 20 is_stmt 0      ## main.c:403:20
	movl	%eax, %esi
	movl	%eax, %edx
	movl	%eax, %r9d
	callq	_bf_OpenFromFile
	.loc	1 403 18                ## main.c:403:18
	movq	%rax, -24(%rbp)
Ltmp179:
	.loc	1 404 23 is_stmt 1      ## main.c:404:23
	cmpq	$0, -24(%rbp)
Ltmp180:
	.loc	1 404 10 is_stmt 0      ## main.c:404:10
	jne	LBB8_57
## BB#56:
	.loc	1 0 10                  ## main.c:0:10
	movl	$1, %edi
Ltmp181:
	.loc	1 406 7 is_stmt 1       ## main.c:406:7
	callq	_exit
Ltmp182:
LBB8_57:
	.loc	1 408 3                 ## main.c:408:3
	jmp	LBB8_58
Ltmp183:
LBB8_58:
	.loc	1 410 20                ## main.c:410:20
	cmpq	$2, _font_format(%rip)
Ltmp184:
	.loc	1 410 8 is_stmt 0       ## main.c:410:8
	jne	LBB8_60
## BB#59:
Ltmp185:
	.loc	1 412 20 is_stmt 1      ## main.c:412:20
	movq	$3, _build_bbx_mode(%rip)
Ltmp186:
LBB8_60:
	.loc	1 417 24                ## main.c:417:24
	movq	-40(%rbp), %rdi
	.loc	1 417 38 is_stmt 0      ## main.c:417:38
	movl	-44(%rbp), %esi
	.loc	1 417 50                ## main.c:417:50
	movq	_build_bbx_mode(%rip), %rax
	movl	%eax, %ecx
	.loc	1 417 66                ## main.c:417:66
	movq	-56(%rbp), %rax
	.loc	1 417 75                ## main.c:417:75
	movq	-64(%rbp), %r8
	.loc	1 417 89                ## main.c:417:89
	movq	_font_format(%rip), %rdx
	movl	%edx, %r9d
	.loc	1 417 8                 ## main.c:417:8
	movl	%ecx, %edx
	movq	%rax, %rcx
	callq	_bf_OpenFromFile
	.loc	1 417 6                 ## main.c:417:6
	movq	%rax, -32(%rbp)
Ltmp187:
	.loc	1 419 11 is_stmt 1      ## main.c:419:11
	cmpq	$0, -32(%rbp)
Ltmp188:
	.loc	1 419 8 is_stmt 0       ## main.c:419:8
	jne	LBB8_62
## BB#61:
	.loc	1 0 8                   ## main.c:0:8
	movl	$1, %edi
Ltmp189:
	.loc	1 421 5 is_stmt 1       ## main.c:421:5
	callq	_exit
Ltmp190:
LBB8_62:
	.loc	1 424 20                ## main.c:424:20
	cmpq	$2, _font_format(%rip)
Ltmp191:
	.loc	1 424 8 is_stmt 0       ## main.c:424:8
	jne	LBB8_64
## BB#63:
	.loc	1 0 8                   ## main.c:0:8
	leaq	L_.str.52(%rip), %rsi
Ltmp192:
	.loc	1 427 12 is_stmt 1      ## main.c:427:12
	movq	-32(%rbp), %rdi
	.loc	1 427 5 is_stmt 0       ## main.c:427:5
	movb	$0, %al
	callq	_bf_Log
Ltmp193:
LBB8_64:
	.loc	1 430 21 is_stmt 1      ## main.c:430:21
	cmpq	$0, -24(%rbp)
Ltmp194:
	.loc	1 430 8 is_stmt 0       ## main.c:430:8
	je	LBB8_75
## BB#65:
	.loc	1 0 8                   ## main.c:0:8
	movl	$1024, %edi             ## imm = 0x400
	movl	$12288, %esi            ## imm = 0x3000
Ltmp195:
	.loc	1 432 5 is_stmt 1       ## main.c:432:5
	callq	_tga_init
Ltmp196:
	.loc	1 433 10                ## main.c:433:10
	movq	_target_fontname(%rip), %rcx
	movsbl	(%rcx), %esi
	.loc	1 433 29 is_stmt 0      ## main.c:433:29
	cmpl	$0, %esi
Ltmp197:
	.loc	1 433 10                ## main.c:433:10
	movl	%eax, -180(%rbp)        ## 4-byte Spill
	je	LBB8_67
## BB#66:
	.loc	1 0 10                  ## main.c:0:10
	xorl	%edi, %edi
Ltmp198:
	.loc	1 434 28 is_stmt 1      ## main.c:434:28
	movq	_target_fontname(%rip), %rsi
	.loc	1 434 45 is_stmt 0      ## main.c:434:45
	movq	-24(%rbp), %rdx
	.loc	1 434 59                ## main.c:434:59
	movq	-32(%rbp), %rcx
	.loc	1 434 63                ## main.c:434:63
	movq	_cmdline_glyphs_per_line(%rip), %r8
	.loc	1 434 11                ## main.c:434:11
	callq	_tga_draw_font
	.loc	1 434 9                 ## main.c:434:9
	movl	%eax, -76(%rbp)
	.loc	1 434 7                 ## main.c:434:7
	jmp	LBB8_68
LBB8_67:
	.loc	1 0 7                   ## main.c:0:7
	xorl	%edi, %edi
	.loc	1 436 28 is_stmt 1      ## main.c:436:28
	movq	-40(%rbp), %rsi
	.loc	1 436 42 is_stmt 0      ## main.c:436:42
	movq	-24(%rbp), %rdx
	.loc	1 436 56                ## main.c:436:56
	movq	-32(%rbp), %rcx
	.loc	1 436 60                ## main.c:436:60
	movq	_cmdline_glyphs_per_line(%rip), %r8
	.loc	1 436 11                ## main.c:436:11
	callq	_tga_draw_font
	.loc	1 436 9                 ## main.c:436:9
	movl	%eax, -76(%rbp)
Ltmp199:
LBB8_68:
	.loc	1 438 23 is_stmt 1      ## main.c:438:23
	cmpl	$0, _runtime_test(%rip)
Ltmp200:
	.loc	1 438 10 is_stmt 0      ## main.c:438:10
	je	LBB8_74
## BB#69:
Ltmp201:
	.loc	1 441 19 is_stmt 1      ## main.c:441:19
	callq	_clock
	leaq	-176(%rbp), %rdi
	.loc	1 441 15 is_stmt 0      ## main.c:441:15
	movq	%rax, -96(%rbp)
Ltmp202:
	##DEBUG_VALUE: fd <- [%RDI+0]
	.loc	1 443 7 is_stmt 1       ## main.c:443:7
	callq	_fd_init
Ltmp203:
	.loc	1 0 7 is_stmt 0         ## main.c:0:7
	leaq	-176(%rbp), %rdi
	.loc	1 444 24 is_stmt 1      ## main.c:444:24
	movq	-32(%rbp), %rax
	.loc	1 444 28 is_stmt 0      ## main.c:444:28
	movq	1288(%rax), %rsi
	.loc	1 444 7                 ## main.c:444:7
	callq	_fd_set_font
Ltmp204:
	.loc	1 445 14 is_stmt 1      ## main.c:445:14
	movq	$0, -88(%rbp)
LBB8_70:                                ## =>This Inner Loop Header: Depth=1
Ltmp205:
	.loc	1 445 21 is_stmt 0      ## main.c:445:21
	cmpq	$10000, -88(%rbp)       ## imm = 0x2710
Ltmp206:
	.loc	1 445 7                 ## main.c:445:7
	jge	LBB8_73
## BB#71:                               ##   in Loop: Header=BB8_70 Depth=1
	.loc	1 0 7                   ## main.c:0:7
	leaq	-176(%rbp), %rdi
	leaq	L_.str.49(%rip), %rcx
Ltmp207:
	.loc	1 446 22 is_stmt 1      ## main.c:446:22
	movq	_left_margin(%rip), %rax
	movl	%eax, %edx
	.loc	1 446 35 is_stmt 0      ## main.c:446:35
	movl	-76(%rbp), %esi
	.loc	1 446 2                 ## main.c:446:2
	movl	%esi, -184(%rbp)        ## 4-byte Spill
	movl	%edx, %esi
	movl	-184(%rbp), %edx        ## 4-byte Reload
	callq	_fd_draw_string
	movl	%eax, -188(%rbp)        ## 4-byte Spill
## BB#72:                               ##   in Loop: Header=BB8_70 Depth=1
	.loc	1 445 31 is_stmt 1      ## main.c:445:31
	movq	-88(%rbp), %rax
	addq	$1, %rax
	movq	%rax, -88(%rbp)
	.loc	1 445 7 is_stmt 0       ## main.c:445:7
	jmp	LBB8_70
Ltmp208:
LBB8_73:
	.loc	1 0 7                   ## main.c:0:7
	leaq	L_.str.53(%rip), %rsi
	movsd	LCPI8_0(%rip), %xmm0    ## xmm0 = mem[0],zero
	.loc	1 447 14 is_stmt 1      ## main.c:447:14
	movq	-32(%rbp), %rdi
	.loc	1 447 54 is_stmt 0      ## main.c:447:54
	movq	%rsi, -200(%rbp)        ## 8-byte Spill
	movsd	%xmm0, -208(%rbp)       ## 8-byte Spill
	movq	%rdi, -216(%rbp)        ## 8-byte Spill
	callq	_clock
	.loc	1 447 62                ## main.c:447:62
	movq	-96(%rbp), %rsi
	.loc	1 447 61                ## main.c:447:61
	subq	%rsi, %rax
	.loc	1 447 45                ## main.c:447:45
	movq	%rax, %xmm0
	movaps	LCPI8_1(%rip), %xmm1    ## xmm1 = [1127219200,1160773632,0,0]
	punpckldq	%xmm1, %xmm0    ## xmm0 = xmm0[0],xmm1[0],xmm0[1],xmm1[1]
	movapd	LCPI8_2(%rip), %xmm1    ## xmm1 = [4.503600e+15,1.934281e+25]
	subpd	%xmm1, %xmm0
	haddpd	%xmm0, %xmm0
	.loc	1 447 64                ## main.c:447:64
	movsd	-208(%rbp), %xmm1       ## 8-byte Reload
                                        ## xmm1 = mem[0],zero
	divsd	%xmm1, %xmm0
	.loc	1 447 7                 ## main.c:447:7
	movq	-216(%rbp), %rdi        ## 8-byte Reload
	movq	-200(%rbp), %rsi        ## 8-byte Reload
	movb	$1, %al
	callq	_bf_Log
Ltmp209:
LBB8_74:
	.loc	1 0 7                   ## main.c:0:7
	movl	$1, %eax
	xorl	%ecx, %ecx
	.loc	1 450 5 is_stmt 1       ## main.c:450:5
	movl	%eax, %edi
	movl	%eax, %esi
	movl	%ecx, %edx
	movl	%ecx, -220(%rbp)        ## 4-byte Spill
	movl	-220(%rbp), %r8d        ## 4-byte Reload
	callq	_tga_set_pixel
	leaq	L_.str.54(%rip), %rdi
	.loc	1 452 5                 ## main.c:452:5
	callq	_tga_save
Ltmp210:
LBB8_75:
	.loc	1 457 19                ## main.c:457:19
	cmpq	$0, _c_filename(%rip)
Ltmp211:
	.loc	1 457 8 is_stmt 0       ## main.c:457:8
	je	LBB8_80
## BB#76:
Ltmp212:
	.loc	1 460 22 is_stmt 1      ## main.c:460:22
	cmpq	$0, _font_format(%rip)
Ltmp213:
	.loc	1 460 10 is_stmt 0      ## main.c:460:10
	jne	LBB8_78
## BB#77:
	.loc	1 0 10                  ## main.c:0:10
	leaq	L_.str.55(%rip), %rcx
Ltmp214:
	.loc	1 462 30 is_stmt 1      ## main.c:462:30
	movq	-32(%rbp), %rdi
	.loc	1 462 34 is_stmt 0      ## main.c:462:34
	movq	_c_filename(%rip), %rsi
	.loc	1 462 46                ## main.c:462:46
	movq	_target_fontname(%rip), %rdx
	.loc	1 462 7                 ## main.c:462:7
	callq	_bf_WriteUCGCByFilename
	.loc	1 463 5 is_stmt 1       ## main.c:463:5
	movl	%eax, -224(%rbp)        ## 4-byte Spill
	jmp	LBB8_79
Ltmp215:
LBB8_78:
	.loc	1 0 5 is_stmt 0         ## main.c:0:5
	leaq	L_.str.55(%rip), %rcx
Ltmp216:
	.loc	1 467 31 is_stmt 1      ## main.c:467:31
	movq	-32(%rbp), %rdi
	.loc	1 467 35 is_stmt 0      ## main.c:467:35
	movq	_c_filename(%rip), %rsi
	.loc	1 467 47                ## main.c:467:47
	movq	_target_fontname(%rip), %rdx
	.loc	1 467 7                 ## main.c:467:7
	callq	_bf_WriteU8G2CByFilename
	movl	%eax, -228(%rbp)        ## 4-byte Spill
Ltmp217:
LBB8_79:
	.loc	1 469 3 is_stmt 1       ## main.c:469:3
	jmp	LBB8_80
Ltmp218:
LBB8_80:
	.loc	1 471 19                ## main.c:471:19
	cmpq	$0, _k_filename(%rip)
Ltmp219:
	.loc	1 471 8 is_stmt 0       ## main.c:471:8
	je	LBB8_82
## BB#81:
Ltmp220:
	.loc	1 473 31 is_stmt 1      ## main.c:473:31
	movq	-32(%rbp), %rdi
	.loc	1 473 35 is_stmt 0      ## main.c:473:35
	movq	_k_filename(%rip), %rsi
	.loc	1 473 47                ## main.c:473:47
	movq	_target_fontname(%rip), %rdx
	.loc	1 473 64                ## main.c:473:64
	movq	_min_distance_in_per_cent_of_char_width(%rip), %rax
	movb	%al, %cl
	.loc	1 473 5                 ## main.c:473:5
	movzbl	%cl, %ecx
	callq	_bdf_calculate_all_kerning
Ltmp221:
LBB8_82:
	.loc	1 478 12 is_stmt 1      ## main.c:478:12
	movq	-32(%rbp), %rdi
	.loc	1 478 3 is_stmt 0       ## main.c:478:3
	callq	_bf_Close
	xorl	%eax, %eax
	.loc	1 479 3 is_stmt 1       ## main.c:479:3
	addq	$240, %rsp
	popq	%rbp
	retq
Ltmp222:
Lfunc_end8:
	.cfi_endproc
                                        ## -- End function
	.section	__TEXT,__cstring,cstring_literals
L_.str:                                 ## @.str
	.asciz	"bdfconv [options] filename\n"

L_.str.1:                               ## @.str.1
	.asciz	"-h          Display this help\n"

L_.str.2:                               ## @.str.2
	.asciz	"-v          Print log messages\n"

L_.str.3:                               ## @.str.3
	.asciz	"-b <n>      Font build mode, 0: proportional, 1: common height, 2: monospace, 3: multiple of 8\n"

L_.str.4:                               ## @.str.4
	.asciz	"-f <n>      Font format, 0: ucglib font, 1: u8g2 font, 2: u8g2 uncompressed 8x8 font (enforces -b 3)\n"

L_.str.5:                               ## @.str.5
	.asciz	"-m 'map'    Unicode ASCII mapping\n"

L_.str.6:                               ## @.str.6
	.asciz	"-M 'mapfile'    Read Unicode ASCII mapping from file 'mapname'\n"

L_.str.7:                               ## @.str.7
	.asciz	"-o <file>   C output font file\n"

L_.str.8:                               ## @.str.8
	.asciz	"-k <file>   C output file with kerning information\n"

L_.str.9:                               ## @.str.9
	.asciz	"-p <%%>    Minimum distance for kerning in percent of the global char width (lower values: Smaller gaps, more data)\n"

L_.str.10:                              ## @.str.10
	.asciz	"-n <name>   C indentifier (font name)\n"

L_.str.11:                              ## @.str.11
	.asciz	"-d <file>   Overview picture: Enable generation of bdf.tga and assign BDF font <file> for description\n"

L_.str.12:                              ## @.str.12
	.asciz	"-l <margin> Overview picture: Set left margin\n"

L_.str.13:                              ## @.str.13
	.asciz	"-g <glyphs> Overview picture: Set glyphs per line (default: 16)\n"

L_.str.14:                              ## @.str.14
	.asciz	"-a          Overview picture: Additional font information (background, orange&blue dot)\n"

L_.str.15:                              ## @.str.15
	.asciz	"-t          Overview picture: Test string (Woven silk pyjamas exchanged for blue quartz.)\n"

L_.str.16:                              ## @.str.16
	.asciz	"-r          Runtime test\n"

L_.str.17:                              ## @.str.17
	.asciz	"\n"

L_.str.18:                              ## @.str.18
	.asciz	"map := <mapcmd> { \",\" <mapcmd> }\n"

L_.str.19:                              ## @.str.19
	.asciz	"mapcmd := <default> | <maprange> | <exclude> | <exclude-kerning>\n"

L_.str.20:                              ## @.str.20
	.asciz	"default := \"*\"\n"

L_.str.21:                              ## @.str.21
	.asciz	"maprange := <range> [  \">\" <addexpr> ]        Move specified glyph <range> to target code <num>\n"

L_.str.22:                              ## @.str.22
	.asciz	"exclude := \"~\" <range> \n"

L_.str.23:                              ## @.str.23
	.asciz	"exclude-kerning:= \"x\" <range> \n"

L_.str.24:                              ## @.str.24
	.asciz	"range := <addexpr> [ \"-\" <addexpr> ]          Select glyphs within specified range\n"

L_.str.25:                              ## @.str.25
	.asciz	"addexpr := <mulexpr> [ \"+\" <mulexpr> ]\n"

L_.str.26:                              ## @.str.26
	.asciz	"mulexpr := <num> [ \"*\" <num> ]\n"

L_.str.27:                              ## @.str.27
	.asciz	"num := <hexnum> | <decnum>\n"

L_.str.28:                              ## @.str.28
	.asciz	"hexnum := \"$\" <hexdigit> { <hexdigit> }\n"

L_.str.29:                              ## @.str.29
	.asciz	"decnum := <decdigit> { <decdigit> }\n"

L_.str.30:                              ## @.str.30
	.asciz	"decdigit := \"0\" | \"1\" | \"2\" | \"3\" | \"4\" | \"5\" | \"6\" | \"7\" | \"8\" | \"9\"\n"

L_.str.31:                              ## @.str.31
	.asciz	"hexdigit := \"a\" | \"b\" | \"c\" | \"d\" | \"e\" | \"f\" | \"A\" | \"B\" | \"C\" | \"D\" | \"E\" | \"F\" | <decdigit>\n"

L_.str.32:                              ## @.str.32
	.asciz	"{ } zero, one ore more, [ ] zero or once, | alternative\n"

L_.str.33:                              ## @.str.33
	.asciz	"example:\n"

L_.str.34:                              ## @.str.34
	.asciz	"  -m '32-255'     select gylphs from encoding 32 to 255\n"

L_.str.35:                              ## @.str.35
	.asciz	"  -m '32-255,~64' select gylphs from encoding 32 to 255, exclude '@'\n"

L_.str.36:                              ## @.str.36
	.asciz	"  -m '32,48-57'   select space, '1', '2', ... '9'\n"

L_.str.37:                              ## @.str.37
	.asciz	"build modes:\n"

L_.str.38:                              ## @.str.38
	.asciz	" -b 0: Most compact, glyph bitmap is minimal\n"

L_.str.39:                              ## @.str.39
	.asciz	" -b 1: Like -b 0, but glyph bitmap is extended to the height of the largest glyph within the selected glyph list.\n"

L_.str.40:                              ## @.str.40
	.asciz	"       Also the width of the gylphs is extended to cover the delta x advance.\n"

L_.str.41:                              ## @.str.41
	.asciz	" -b 2: Like -b 1, but glyph width is set to the width of the largest glyph within the selected gylph list.\n"

L_.str.42:                              ## @.str.42
	.asciz	" -b 3: Like -b 2, but width and height are forced to be a multiple of 8.\n"

	.section	__DATA,__data
	.globl	_left_margin            ## @left_margin
	.p2align	3
_left_margin:
	.quad	1                       ## 0x1

	.globl	_build_bbx_mode         ## @build_bbx_mode
.zerofill __DATA,__common,_build_bbx_mode,8,3
	.globl	_font_format            ## @font_format
.zerofill __DATA,__common,_font_format,8,3
	.globl	_min_distance_in_per_cent_of_char_width ## @min_distance_in_per_cent_of_char_width
	.p2align	3
_min_distance_in_per_cent_of_char_width:
	.quad	25                      ## 0x19

	.globl	_cmdline_glyphs_per_line ## @cmdline_glyphs_per_line
	.p2align	3
_cmdline_glyphs_per_line:
	.quad	16                      ## 0x10

	.globl	_font_picture_extra_info ## @font_picture_extra_info
.zerofill __DATA,__common,_font_picture_extra_info,4,2
	.globl	_font_picture_test_string ## @font_picture_test_string
.zerofill __DATA,__common,_font_picture_test_string,4,2
	.globl	_runtime_test           ## @runtime_test
.zerofill __DATA,__common,_runtime_test,4,2
	.globl	_c_filename             ## @c_filename
.zerofill __DATA,__common,_c_filename,8,3
	.globl	_k_filename             ## @k_filename
.zerofill __DATA,__common,_k_filename,8,3
	.section	__TEXT,__cstring,cstring_literals
L_.str.43:                              ## @.str.43
	.asciz	"bdf_font"

	.section	__DATA,__data
	.globl	_target_fontname        ## @target_fontname
	.p2align	3
_target_fontname:
	.quad	L_.str.43

	.section	__TEXT,__cstring,cstring_literals
L_.str.44:                              ## @.str.44
	.asciz	"%5ld/0x%04lx"

.zerofill __DATA,__bss,_tga_draw_font_info.s,256,4 ## @tga_draw_font_info.s
L_.str.45:                              ## @.str.45
	.asciz	"Max width %u, max height %u"

L_.str.46:                              ## @.str.46
	.asciz	"'A' height %d, font size %d "

L_.str.47:                              ## @.str.47
	.asciz	"Draw TGA, line height %d"

L_.str.48:                              ## @.str.48
	.asciz	"Draw TGA, xmax %d"

L_.str.49:                              ## @.str.49
	.asciz	"Woven silk pyjamas exchanged for blue quartz."

L_.str.50:                              ## @.str.50
	.asciz	"*"

L_.str.51:                              ## @.str.51
	.space	1

L_.str.52:                              ## @.str.52
	.asciz	"Note: For font format 1 BBX mode has been set to 3"

L_.str.53:                              ## @.str.53
	.asciz	"Runtime test: %.2lf sec"

L_.str.54:                              ## @.str.54
	.asciz	"bdf.tga"

L_.str.55:                              ## @.str.55
	.asciz	"  "

	.file	2 "." "bdf_font.h"
	.file	3 "." "bdf_glyph.h"
	.file	4 "/usr/include/_types" "_uint8_t.h"
	.file	5 "/usr/include" "_stdio.h"
	.file	6 "/usr/include/i386" "_types.h"
	.file	7 "/usr/include/sys" "_types.h"
	.file	8 "/usr/include/sys/_types" "_clock_t.h"
	.file	9 "." "fd.h"